
ptxrx1.elf:     file format elf32-avr

Sections:
Idx Name          Size      VMA       LMA       File off  Algn
  0 .data         00000022  00800200  000028f6  0000298a  2**0
                  CONTENTS, ALLOC, LOAD, DATA
  1 .text         000028f6  00000000  00000000  00000094  2**1
                  CONTENTS, ALLOC, LOAD, READONLY, CODE
  2 .bss          00000350  00800222  00800222  000029ac  2**0
                  ALLOC
  3 .comment      00000030  00000000  00000000  000029ac  2**0
                  CONTENTS, READONLY
  4 .note.gnu.avr.deviceinfo 00000040  00000000  00000000  000029dc  2**2
                  CONTENTS, READONLY
  5 .debug_aranges 000006f8  00000000  00000000  00002a1c  2**0
                  CONTENTS, READONLY, DEBUGGING
  6 .debug_info   00009bab  00000000  00000000  00003114  2**0
                  CONTENTS, READONLY, DEBUGGING
  7 .debug_abbrev 00003d77  00000000  00000000  0000ccbf  2**0
                  CONTENTS, READONLY, DEBUGGING
  8 .debug_line   0000c97f  00000000  00000000  00010a36  2**0
                  CONTENTS, READONLY, DEBUGGING
  9 .debug_frame  00001790  00000000  00000000  0001d3b8  2**2
                  CONTENTS, READONLY, DEBUGGING
 10 .debug_str    0001effd  00000000  00000000  0001eb48  2**0
                  CONTENTS, READONLY, DEBUGGING
 11 .debug_loc    00006172  00000000  00000000  0003db45  2**0
                  CONTENTS, READONLY, DEBUGGING
 12 .debug_ranges 00000668  00000000  00000000  00043cb7  2**0
                  CONTENTS, READONLY, DEBUGGING
 13 .debug_macro  0000af79  00000000  00000000  0004431f  2**0
                  CONTENTS, READONLY, DEBUGGING

Disassembly of section .text:

00000000 <__vectors>:
       0:	b8 c0       	rjmp	.+368    	; 0x172 <__ctors_end>
       2:	00 00       	nop
       4:	d7 c0       	rjmp	.+430    	; 0x1b4 <__bad_interrupt>
       6:	00 00       	nop
       8:	d5 c0       	rjmp	.+426    	; 0x1b4 <__bad_interrupt>
       a:	00 00       	nop
       c:	d3 c0       	rjmp	.+422    	; 0x1b4 <__bad_interrupt>
       e:	00 00       	nop
      10:	d1 c0       	rjmp	.+418    	; 0x1b4 <__bad_interrupt>
      12:	00 00       	nop
      14:	cf c0       	rjmp	.+414    	; 0x1b4 <__bad_interrupt>
      16:	00 00       	nop
      18:	cd c0       	rjmp	.+410    	; 0x1b4 <__bad_interrupt>
      1a:	00 00       	nop
      1c:	cb c0       	rjmp	.+406    	; 0x1b4 <__bad_interrupt>
      1e:	00 00       	nop
      20:	c9 c0       	rjmp	.+402    	; 0x1b4 <__bad_interrupt>
      22:	00 00       	nop
      24:	c7 c0       	rjmp	.+398    	; 0x1b4 <__bad_interrupt>
      26:	00 00       	nop
      28:	c5 c0       	rjmp	.+394    	; 0x1b4 <__bad_interrupt>
      2a:	00 00       	nop
      2c:	c3 c0       	rjmp	.+390    	; 0x1b4 <__bad_interrupt>
      2e:	00 00       	nop
      30:	c1 c0       	rjmp	.+386    	; 0x1b4 <__bad_interrupt>
      32:	00 00       	nop
      34:	bf c0       	rjmp	.+382    	; 0x1b4 <__bad_interrupt>
      36:	00 00       	nop
      38:	bd c0       	rjmp	.+378    	; 0x1b4 <__bad_interrupt>
      3a:	00 00       	nop
      3c:	bb c0       	rjmp	.+374    	; 0x1b4 <__bad_interrupt>
      3e:	00 00       	nop
      40:	b9 c0       	rjmp	.+370    	; 0x1b4 <__bad_interrupt>
      42:	00 00       	nop
      44:	0c 94 7d 0f 	jmp	0x1efa	; 0x1efa <__vector_17>
      48:	0c 94 aa 0f 	jmp	0x1f54	; 0x1f54 <__vector_18>
      4c:	0c 94 d7 0f 	jmp	0x1fae	; 0x1fae <__vector_19>
      50:	0c 94 50 0f 	jmp	0x1ea0	; 0x1ea0 <__vector_20>
      54:	af c0       	rjmp	.+350    	; 0x1b4 <__bad_interrupt>
      56:	00 00       	nop
      58:	ad c0       	rjmp	.+346    	; 0x1b4 <__bad_interrupt>
      5a:	00 00       	nop
      5c:	ab c0       	rjmp	.+342    	; 0x1b4 <__bad_interrupt>
      5e:	00 00       	nop
      60:	a9 c0       	rjmp	.+338    	; 0x1b4 <__bad_interrupt>
      62:	00 00       	nop
      64:	a7 c0       	rjmp	.+334    	; 0x1b4 <__bad_interrupt>
      66:	00 00       	nop
      68:	a5 c0       	rjmp	.+330    	; 0x1b4 <__bad_interrupt>
      6a:	00 00       	nop
      6c:	a3 c0       	rjmp	.+326    	; 0x1b4 <__bad_interrupt>
      6e:	00 00       	nop
      70:	a1 c0       	rjmp	.+322    	; 0x1b4 <__bad_interrupt>
      72:	00 00       	nop
      74:	9f c0       	rjmp	.+318    	; 0x1b4 <__bad_interrupt>
      76:	00 00       	nop
      78:	9d c0       	rjmp	.+314    	; 0x1b4 <__bad_interrupt>
      7a:	00 00       	nop
      7c:	9b c0       	rjmp	.+310    	; 0x1b4 <__bad_interrupt>
      7e:	00 00       	nop
      80:	0c 94 31 10 	jmp	0x2062	; 0x2062 <__vector_32>
      84:	0c 94 5e 10 	jmp	0x20bc	; 0x20bc <__vector_33>
      88:	0c 94 8b 10 	jmp	0x2116	; 0x2116 <__vector_34>
      8c:	0c 94 04 10 	jmp	0x2008	; 0x2008 <__vector_35>
      90:	91 c0       	rjmp	.+290    	; 0x1b4 <__bad_interrupt>
      92:	00 00       	nop
      94:	8f c0       	rjmp	.+286    	; 0x1b4 <__bad_interrupt>
      96:	00 00       	nop
      98:	8d c0       	rjmp	.+282    	; 0x1b4 <__bad_interrupt>
      9a:	00 00       	nop
      9c:	8b c0       	rjmp	.+278    	; 0x1b4 <__bad_interrupt>
      9e:	00 00       	nop
      a0:	89 c0       	rjmp	.+274    	; 0x1b4 <__bad_interrupt>
      a2:	00 00       	nop
      a4:	87 c0       	rjmp	.+270    	; 0x1b4 <__bad_interrupt>
      a6:	00 00       	nop
      a8:	0c 94 e5 10 	jmp	0x21ca	; 0x21ca <__vector_42>
      ac:	0c 94 12 11 	jmp	0x2224	; 0x2224 <__vector_43>
      b0:	0c 94 3f 11 	jmp	0x227e	; 0x227e <__vector_44>
      b4:	0c 94 b8 10 	jmp	0x2170	; 0x2170 <__vector_45>
      b8:	7d c0       	rjmp	.+250    	; 0x1b4 <__bad_interrupt>
      ba:	00 00       	nop
      bc:	0c 94 99 11 	jmp	0x2332	; 0x2332 <__vector_47>
      c0:	0c 94 c6 11 	jmp	0x238c	; 0x238c <__vector_48>
      c4:	0c 94 f3 11 	jmp	0x23e6	; 0x23e6 <__vector_49>
      c8:	0c 94 6c 11 	jmp	0x22d8	; 0x22d8 <__vector_50>
      cc:	73 c0       	rjmp	.+230    	; 0x1b4 <__bad_interrupt>
      ce:	00 00       	nop
      d0:	71 c0       	rjmp	.+226    	; 0x1b4 <__bad_interrupt>
      d2:	00 00       	nop
      d4:	6f c0       	rjmp	.+222    	; 0x1b4 <__bad_interrupt>
      d6:	00 00       	nop
      d8:	6d c0       	rjmp	.+218    	; 0x1b4 <__bad_interrupt>
      da:	00 00       	nop
      dc:	6b c0       	rjmp	.+214    	; 0x1b4 <__bad_interrupt>
      de:	00 00       	nop
      e0:	69 c0       	rjmp	.+210    	; 0x1b4 <__bad_interrupt>
      e2:	00 00       	nop
      e4:	0c 94 fd 09 	jmp	0x13fa	; 0x13fa <__vector_57>
      e8:	0c 94 07 0a 	jmp	0x140e	; 0x140e <__vector_58>
      ec:	0c 94 f3 09 	jmp	0x13e6	; 0x13e6 <__vector_59>
      f0:	0c 94 72 09 	jmp	0x12e4	; 0x12e4 <__vector_60>
      f4:	0c 94 9d 09 	jmp	0x133a	; 0x133a <__vector_61>
      f8:	0c 94 11 0a 	jmp	0x1422	; 0x1422 <__vector_62>
      fc:	0c 94 47 09 	jmp	0x128e	; 0x128e <__vector_63>
     100:	0c 94 c8 09 	jmp	0x1390	; 0x1390 <__vector_64>
     104:	57 c0       	rjmp	.+174    	; 0x1b4 <__bad_interrupt>
     106:	00 00       	nop
     108:	55 c0       	rjmp	.+170    	; 0x1b4 <__bad_interrupt>
     10a:	00 00       	nop
     10c:	53 c0       	rjmp	.+166    	; 0x1b4 <__bad_interrupt>
     10e:	00 00       	nop
     110:	51 c0       	rjmp	.+162    	; 0x1b4 <__bad_interrupt>
     112:	00 00       	nop
     114:	4f c0       	rjmp	.+158    	; 0x1b4 <__bad_interrupt>
     116:	00 00       	nop
     118:	0c 94 25 0a 	jmp	0x144a	; 0x144a <__vector_70>
     11c:	0c 94 1b 0a 	jmp	0x1436	; 0x1436 <__vector_71>
     120:	0c 94 2f 0a 	jmp	0x145e	; 0x145e <__vector_72>
     124:	0c 94 39 0a 	jmp	0x1472	; 0x1472 <__vector_73>
     128:	0c 94 43 0a 	jmp	0x1486	; 0x1486 <__vector_74>
     12c:	0c 94 4d 0a 	jmp	0x149a	; 0x149a <__vector_75>
     130:	0c 94 57 0a 	jmp	0x14ae	; 0x14ae <__vector_76>
     134:	ca 06       	cpc	r12, r26
     136:	f1 06       	cpc	r15, r17
     138:	e5 06       	cpc	r14, r21
     13a:	fe 06       	cpc	r15, r30
     13c:	e5 06       	cpc	r14, r21
     13e:	bd 06       	cpc	r11, r29
     140:	d7 06       	cpc	r13, r23
     142:	e5 06       	cpc	r14, r21
     144:	e5 06       	cpc	r14, r21
     146:	e5 06       	cpc	r14, r21
     148:	e5 06       	cpc	r14, r21
     14a:	e5 06       	cpc	r14, r21
     14c:	91 06       	cpc	r9, r17
     14e:	e5 06       	cpc	r14, r21
     150:	e5 06       	cpc	r14, r21
     152:	e5 06       	cpc	r14, r21
     154:	e5 06       	cpc	r14, r21
     156:	e5 06       	cpc	r14, r21
     158:	e5 06       	cpc	r14, r21
     15a:	1d 07       	cpc	r17, r29
     15c:	e5 06       	cpc	r14, r21
     15e:	e5 06       	cpc	r14, r21
     160:	56 07       	cpc	r21, r22

00000162 <__trampolines_end>:
     162:	04 03       	mulsu	r16, r20
     164:	03 02       	muls	r16, r19
     166:	02 01       	movw	r0, r4
     168:	00 ff       	sbrs	r16, 0
     16a:	fe fd       	.word	0xfdfe	; ????
     16c:	fc fb       	.word	0xfbfc	; ????
     16e:	f9 f7       	brne	.-2      	; 0x16e <__trampolines_end+0xc>
     170:	f4 ef       	ldi	r31, 0xF4	; 244

00000172 <__ctors_end>:
     172:	11 24       	eor	r1, r1
     174:	1f be       	out	0x3f, r1	; 63
     176:	cf ef       	ldi	r28, 0xFF	; 255
     178:	d1 e8       	ldi	r29, 0x81	; 129
     17a:	de bf       	out	0x3e, r29	; 62
     17c:	cd bf       	out	0x3d, r28	; 61
     17e:	00 e0       	ldi	r16, 0x00	; 0
     180:	0c bf       	out	0x3c, r16	; 60

00000182 <__do_copy_data>:
     182:	12 e0       	ldi	r17, 0x02	; 2
     184:	a0 e0       	ldi	r26, 0x00	; 0
     186:	b2 e0       	ldi	r27, 0x02	; 2
     188:	e6 ef       	ldi	r30, 0xF6	; 246
     18a:	f8 e2       	ldi	r31, 0x28	; 40
     18c:	00 e0       	ldi	r16, 0x00	; 0
     18e:	0b bf       	out	0x3b, r16	; 59
     190:	02 c0       	rjmp	.+4      	; 0x196 <__do_copy_data+0x14>
     192:	07 90       	elpm	r0, Z+
     194:	0d 92       	st	X+, r0
     196:	a2 32       	cpi	r26, 0x22	; 34
     198:	b1 07       	cpc	r27, r17
     19a:	d9 f7       	brne	.-10     	; 0x192 <__do_copy_data+0x10>

0000019c <__do_clear_bss>:
     19c:	25 e0       	ldi	r18, 0x05	; 5
     19e:	a2 e2       	ldi	r26, 0x22	; 34
     1a0:	b2 e0       	ldi	r27, 0x02	; 2
     1a2:	01 c0       	rjmp	.+2      	; 0x1a6 <.do_clear_bss_start>

000001a4 <.do_clear_bss_loop>:
     1a4:	1d 92       	st	X+, r1

000001a6 <.do_clear_bss_start>:
     1a6:	a2 37       	cpi	r26, 0x72	; 114
     1a8:	b2 07       	cpc	r27, r18
     1aa:	e1 f7       	brne	.-8      	; 0x1a4 <.do_clear_bss_loop>
     1ac:	0e 94 4e 13 	call	0x269c	; 0x269c <main>
     1b0:	0c 94 79 14 	jmp	0x28f2	; 0x28f2 <_exit>

000001b4 <__bad_interrupt>:
     1b4:	25 cf       	rjmp	.-438    	; 0x0 <__vectors>

000001b6 <common_tc_read_count>:
     1b6:	0e 94 f8 0e 	call	0x1df0	; 0x1df0 <tmr_read_count>
     1ba:	20 91 26 02 	lds	r18, 0x0226	; 0x800226 <timer_mul_var>
     1be:	22 23       	and	r18, r18
     1c0:	d9 f0       	breq	.+54     	; 0x1f8 <common_tc_read_count+0x42>
     1c2:	40 91 71 05 	lds	r20, 0x0571	; 0x800571 <timer_multiplier>
     1c6:	30 e0       	ldi	r19, 0x00	; 0
     1c8:	20 91 26 02 	lds	r18, 0x0226	; 0x800226 <timer_mul_var>
     1cc:	64 2f       	mov	r22, r20
     1ce:	73 2f       	mov	r23, r19
     1d0:	0e 94 77 13 	call	0x26ee	; 0x26ee <__udivmodhi4>
     1d4:	fb 01       	movw	r30, r22
     1d6:	8f ef       	ldi	r24, 0xFF	; 255
     1d8:	9f ef       	ldi	r25, 0xFF	; 255
     1da:	64 2f       	mov	r22, r20
     1dc:	73 2f       	mov	r23, r19
     1de:	0e 94 77 13 	call	0x26ee	; 0x26ee <__udivmodhi4>
     1e2:	30 e0       	ldi	r19, 0x00	; 0
     1e4:	62 9f       	mul	r22, r18
     1e6:	c0 01       	movw	r24, r0
     1e8:	63 9f       	mul	r22, r19
     1ea:	90 0d       	add	r25, r0
     1ec:	72 9f       	mul	r23, r18
     1ee:	90 0d       	add	r25, r0
     1f0:	11 24       	eor	r1, r1
     1f2:	8e 0f       	add	r24, r30
     1f4:	9f 1f       	adc	r25, r31
     1f6:	08 95       	ret
     1f8:	60 91 71 05 	lds	r22, 0x0571	; 0x800571 <timer_multiplier>
     1fc:	70 e0       	ldi	r23, 0x00	; 0
     1fe:	0e 94 77 13 	call	0x26ee	; 0x26ee <__udivmodhi4>
     202:	cb 01       	movw	r24, r22
     204:	08 95       	ret

00000206 <common_tc_compare_stop>:
     206:	0e 94 fd 0e 	call	0x1dfa	; 0x1dfa <tmr_disable_cc_interrupt>
     20a:	0e 94 21 0f 	call	0x1e42	; 0x1e42 <save_cpu_interrupt>
     20e:	10 92 22 02 	sts	0x0222, r1	; 0x800222 <__data_end>
     212:	10 92 23 02 	sts	0x0223, r1	; 0x800223 <__data_end+0x1>
     216:	10 92 24 02 	sts	0x0224, r1	; 0x800224 <__data_end+0x2>
     21a:	10 92 25 02 	sts	0x0225, r1	; 0x800225 <__data_end+0x3>
     21e:	10 92 28 02 	sts	0x0228, r1	; 0x800228 <compare_value+0x1>
     222:	10 92 27 02 	sts	0x0227, r1	; 0x800227 <compare_value>
     226:	0c 94 2e 0f 	jmp	0x1e5c	; 0x1e5c <restore_cpu_interrupt>

0000022a <common_tc_overflow_stop>:
     22a:	0e 94 0b 0f 	call	0x1e16	; 0x1e16 <tmr_disable_ovf_interrupt>
     22e:	10 92 26 02 	sts	0x0226, r1	; 0x800226 <timer_mul_var>
     232:	08 95       	ret

00000234 <common_tc_stop>:
     234:	e8 df       	rcall	.-48     	; 0x206 <common_tc_compare_stop>
     236:	f9 df       	rcall	.-14     	; 0x22a <common_tc_overflow_stop>
     238:	0c 94 12 0f 	jmp	0x1e24	; 0x1e24 <tmr_stop>

0000023c <common_tc_delay>:
     23c:	0f 93       	push	r16
     23e:	1f 93       	push	r17
     240:	cf 93       	push	r28
     242:	df 93       	push	r29
     244:	ec 01       	movw	r28, r24
     246:	0e 94 f8 0e 	call	0x1df0	; 0x1df0 <tmr_read_count>
     24a:	8c 01       	movw	r16, r24
     24c:	be 01       	movw	r22, r28
     24e:	80 e0       	ldi	r24, 0x00	; 0
     250:	90 e0       	ldi	r25, 0x00	; 0
     252:	20 91 71 05 	lds	r18, 0x0571	; 0x800571 <timer_multiplier>
     256:	30 e0       	ldi	r19, 0x00	; 0
     258:	40 e0       	ldi	r20, 0x00	; 0
     25a:	50 e0       	ldi	r21, 0x00	; 0
     25c:	0e 94 68 13 	call	0x26d0	; 0x26d0 <__mulsi3>
     260:	dc 01       	movw	r26, r24
     262:	cb 01       	movw	r24, r22
     264:	a8 01       	movw	r20, r16
     266:	60 e0       	ldi	r22, 0x00	; 0
     268:	70 e0       	ldi	r23, 0x00	; 0
     26a:	48 0f       	add	r20, r24
     26c:	59 1f       	adc	r21, r25
     26e:	6a 1f       	adc	r22, r26
     270:	7b 1f       	adc	r23, r27
     272:	40 93 22 02 	sts	0x0222, r20	; 0x800222 <__data_end>
     276:	50 93 23 02 	sts	0x0223, r21	; 0x800223 <__data_end+0x1>
     27a:	60 93 24 02 	sts	0x0224, r22	; 0x800224 <__data_end+0x2>
     27e:	70 93 25 02 	sts	0x0225, r23	; 0x800225 <__data_end+0x3>
     282:	40 91 22 02 	lds	r20, 0x0222	; 0x800222 <__data_end>
     286:	50 91 23 02 	lds	r21, 0x0223	; 0x800223 <__data_end+0x1>
     28a:	60 91 24 02 	lds	r22, 0x0224	; 0x800224 <__data_end+0x2>
     28e:	70 91 25 02 	lds	r23, 0x0225	; 0x800225 <__data_end+0x3>
     292:	ab 01       	movw	r20, r22
     294:	66 27       	eor	r22, r22
     296:	77 27       	eor	r23, r23
     298:	40 93 22 02 	sts	0x0222, r20	; 0x800222 <__data_end>
     29c:	50 93 23 02 	sts	0x0223, r21	; 0x800223 <__data_end+0x1>
     2a0:	60 93 24 02 	sts	0x0224, r22	; 0x800224 <__data_end+0x2>
     2a4:	70 93 25 02 	sts	0x0225, r23	; 0x800225 <__data_end+0x3>
     2a8:	40 91 22 02 	lds	r20, 0x0222	; 0x800222 <__data_end>
     2ac:	50 91 23 02 	lds	r21, 0x0223	; 0x800223 <__data_end+0x1>
     2b0:	60 91 24 02 	lds	r22, 0x0224	; 0x800224 <__data_end+0x2>
     2b4:	70 91 25 02 	lds	r23, 0x0225	; 0x800225 <__data_end+0x3>
     2b8:	41 15       	cp	r20, r1
     2ba:	51 05       	cpc	r21, r1
     2bc:	61 05       	cpc	r22, r1
     2be:	71 05       	cpc	r23, r1
     2c0:	91 f0       	breq	.+36     	; 0x2e6 <common_tc_delay+0xaa>
     2c2:	40 91 22 02 	lds	r20, 0x0222	; 0x800222 <__data_end>
     2c6:	50 91 23 02 	lds	r21, 0x0223	; 0x800223 <__data_end+0x1>
     2ca:	60 91 24 02 	lds	r22, 0x0224	; 0x800224 <__data_end+0x2>
     2ce:	70 91 25 02 	lds	r23, 0x0225	; 0x800225 <__data_end+0x3>
     2d2:	01 96       	adiw	r24, 0x01	; 1
     2d4:	08 0f       	add	r16, r24
     2d6:	19 1f       	adc	r17, r25
     2d8:	10 93 28 02 	sts	0x0228, r17	; 0x800228 <compare_value+0x1>
     2dc:	00 93 27 02 	sts	0x0227, r16	; 0x800227 <compare_value>
     2e0:	0e 94 fd 0e 	call	0x1dfa	; 0x1dfa <tmr_disable_cc_interrupt>
     2e4:	08 c0       	rjmp	.+16     	; 0x2f6 <common_tc_delay+0xba>
     2e6:	08 0f       	add	r16, r24
     2e8:	19 1f       	adc	r17, r25
     2ea:	10 93 28 02 	sts	0x0228, r17	; 0x800228 <compare_value+0x1>
     2ee:	00 93 27 02 	sts	0x0227, r16	; 0x800227 <compare_value>
     2f2:	0e 94 04 0f 	call	0x1e08	; 0x1e08 <tmr_enable_cc_interrupt>
     2f6:	80 91 27 02 	lds	r24, 0x0227	; 0x800227 <compare_value>
     2fa:	90 91 28 02 	lds	r25, 0x0228	; 0x800228 <compare_value+0x1>
     2fe:	84 36       	cpi	r24, 0x64	; 100
     300:	91 05       	cpc	r25, r1
     302:	30 f4       	brcc	.+12     	; 0x310 <common_tc_delay+0xd4>
     304:	8c 59       	subi	r24, 0x9C	; 156
     306:	9f 4f       	sbci	r25, 0xFF	; 255
     308:	90 93 28 02 	sts	0x0228, r25	; 0x800228 <compare_value+0x1>
     30c:	80 93 27 02 	sts	0x0227, r24	; 0x800227 <compare_value>
     310:	80 91 27 02 	lds	r24, 0x0227	; 0x800227 <compare_value>
     314:	90 91 28 02 	lds	r25, 0x0228	; 0x800228 <compare_value+0x1>
     318:	0e 94 16 0f 	call	0x1e2c	; 0x1e2c <tmr_write_cmpreg>
     31c:	df 91       	pop	r29
     31e:	cf 91       	pop	r28
     320:	1f 91       	pop	r17
     322:	0f 91       	pop	r16
     324:	08 95       	ret

00000326 <common_tc_init>:
     326:	10 92 26 02 	sts	0x0226, r1	; 0x800226 <timer_mul_var>
     32a:	0e 94 30 0f 	call	0x1e60	; 0x1e60 <tmr_init>
     32e:	80 93 71 05 	sts	0x0571, r24	; 0x800571 <timer_multiplier>
     332:	08 95       	ret

00000334 <tmr_ovf_callback>:
     334:	80 91 22 02 	lds	r24, 0x0222	; 0x800222 <__data_end>
     338:	90 91 23 02 	lds	r25, 0x0223	; 0x800223 <__data_end+0x1>
     33c:	a0 91 24 02 	lds	r26, 0x0224	; 0x800224 <__data_end+0x2>
     340:	b0 91 25 02 	lds	r27, 0x0225	; 0x800225 <__data_end+0x3>
     344:	00 97       	sbiw	r24, 0x00	; 0
     346:	a1 05       	cpc	r26, r1
     348:	b1 05       	cpc	r27, r1
     34a:	c9 f0       	breq	.+50     	; 0x37e <tmr_ovf_callback+0x4a>
     34c:	80 91 22 02 	lds	r24, 0x0222	; 0x800222 <__data_end>
     350:	90 91 23 02 	lds	r25, 0x0223	; 0x800223 <__data_end+0x1>
     354:	a0 91 24 02 	lds	r26, 0x0224	; 0x800224 <__data_end+0x2>
     358:	b0 91 25 02 	lds	r27, 0x0225	; 0x800225 <__data_end+0x3>
     35c:	01 97       	sbiw	r24, 0x01	; 1
     35e:	a1 09       	sbc	r26, r1
     360:	b1 09       	sbc	r27, r1
     362:	80 93 22 02 	sts	0x0222, r24	; 0x800222 <__data_end>
     366:	90 93 23 02 	sts	0x0223, r25	; 0x800223 <__data_end+0x1>
     36a:	a0 93 24 02 	sts	0x0224, r26	; 0x800224 <__data_end+0x2>
     36e:	b0 93 25 02 	sts	0x0225, r27	; 0x800225 <__data_end+0x3>
     372:	00 97       	sbiw	r24, 0x00	; 0
     374:	a1 05       	cpc	r26, r1
     376:	b1 05       	cpc	r27, r1
     378:	11 f4       	brne	.+4      	; 0x37e <tmr_ovf_callback+0x4a>
     37a:	0e 94 04 0f 	call	0x1e08	; 0x1e08 <tmr_enable_cc_interrupt>
     37e:	80 91 26 02 	lds	r24, 0x0226	; 0x800226 <timer_mul_var>
     382:	8f 5f       	subi	r24, 0xFF	; 255
     384:	80 93 26 02 	sts	0x0226, r24	; 0x800226 <timer_mul_var>
     388:	90 91 71 05 	lds	r25, 0x0571	; 0x800571 <timer_multiplier>
     38c:	89 17       	cp	r24, r25
     38e:	48 f0       	brcs	.+18     	; 0x3a2 <tmr_ovf_callback+0x6e>
     390:	10 92 26 02 	sts	0x0226, r1	; 0x800226 <timer_mul_var>
     394:	e0 91 29 02 	lds	r30, 0x0229	; 0x800229 <common_tc_ovf_callback>
     398:	f0 91 2a 02 	lds	r31, 0x022A	; 0x80022a <common_tc_ovf_callback+0x1>
     39c:	30 97       	sbiw	r30, 0x00	; 0
     39e:	09 f0       	breq	.+2      	; 0x3a2 <tmr_ovf_callback+0x6e>
     3a0:	19 95       	eicall
     3a2:	08 95       	ret

000003a4 <tmr_cca_callback>:
     3a4:	0e 94 fd 0e 	call	0x1dfa	; 0x1dfa <tmr_disable_cc_interrupt>
     3a8:	e0 91 2b 02 	lds	r30, 0x022B	; 0x80022b <common_tc_cca_callback>
     3ac:	f0 91 2c 02 	lds	r31, 0x022C	; 0x80022c <common_tc_cca_callback+0x1>
     3b0:	30 97       	sbiw	r30, 0x00	; 0
     3b2:	09 f0       	breq	.+2      	; 0x3b6 <tmr_cca_callback+0x12>
     3b4:	19 95       	eicall
     3b6:	08 95       	ret

000003b8 <set_common_tc_overflow_callback>:
     3b8:	90 93 2a 02 	sts	0x022A, r25	; 0x80022a <common_tc_ovf_callback+0x1>
     3bc:	80 93 29 02 	sts	0x0229, r24	; 0x800229 <common_tc_ovf_callback>
     3c0:	08 95       	ret

000003c2 <set_common_tc_expiry_callback>:
     3c2:	90 93 2c 02 	sts	0x022C, r25	; 0x80022c <common_tc_cca_callback+0x1>
     3c6:	80 93 2b 02 	sts	0x022B, r24	; 0x80022b <common_tc_cca_callback>
     3ca:	08 95       	ret

000003cc <__portable_avr_delay_cycles>:
 *
 * @{
 */
__always_optimize
static inline void __portable_avr_delay_cycles(unsigned long n)
{
     3cc:	04 c0       	rjmp	.+8      	; 0x3d6 <__portable_avr_delay_cycles+0xa>
	while (n) {
		barrier();
		n--;
     3ce:	61 50       	subi	r22, 0x01	; 1
     3d0:	71 09       	sbc	r23, r1
     3d2:	81 09       	sbc	r24, r1
     3d4:	91 09       	sbc	r25, r1
 * @{
 */
__always_optimize
static inline void __portable_avr_delay_cycles(unsigned long n)
{
	while (n) {
     3d6:	61 15       	cp	r22, r1
     3d8:	71 05       	cpc	r23, r1
     3da:	81 05       	cpc	r24, r1
     3dc:	91 05       	cpc	r25, r1
     3de:	b9 f7       	brne	.-18     	; 0x3ce <__portable_avr_delay_cycles+0x2>
     3e0:	08 95       	ret

000003e2 <usr_wireless_app_task>:
	// This function will be called repeatedly from main.c. (Refer to function app_task(), WirelessTask() in main.c)
	// The following code demonstrates transmission of a sample packet frame every 1 second.

	#ifdef TRANSMITTER_ENABLED	
	
	if (coordinador)
     3e2:	80 91 2d 02 	lds	r24, 0x022D	; 0x80022d <coordinador>
     3e6:	88 23       	and	r24, r24
     3e8:	91 f0       	breq	.+36     	; 0x40e <__LOCK_REGION_LENGTH__+0xe>
	{
		
		// This code block will be called only if the transmission is enabled.
		transmit_sample_frame((uint8_t*)A, strlen(A));	
     3ea:	80 91 04 02 	lds	r24, 0x0204	; 0x800204 <A>
     3ee:	90 91 05 02 	lds	r25, 0x0205	; 0x800205 <A+0x1>
     3f2:	fc 01       	movw	r30, r24
     3f4:	01 90       	ld	r0, Z+
     3f6:	00 20       	and	r0, r0
     3f8:	e9 f7       	brne	.-6      	; 0x3f4 <usr_wireless_app_task+0x12>
     3fa:	31 97       	sbiw	r30, 0x01	; 1
     3fc:	bf 01       	movw	r22, r30
     3fe:	68 1b       	sub	r22, r24
     400:	79 0b       	sbc	r23, r25
     402:	d3 d0       	rcall	.+422    	; 0x5aa <transmit_sample_frame>
		
		delay_ms(1000);
     404:	66 e5       	ldi	r22, 0x56	; 86
     406:	78 e5       	ldi	r23, 0x58	; 88
     408:	84 e1       	ldi	r24, 0x14	; 20
     40a:	90 e0       	ldi	r25, 0x00	; 0
     40c:	df cf       	rjmp	.-66     	; 0x3cc <__portable_avr_delay_cycles>
     40e:	08 95       	ret

00000410 <usr_frame_received_cb>:
/**
* \brief This function needs to be edited by the user for adding  tasks when a frame is received
* \param frame pointer to the received frame
*/
void usr_frame_received_cb(frame_info_t *frame)
{
     410:	0f 93       	push	r16
     412:	1f 93       	push	r17
     414:	cf 93       	push	r28
     416:	df 93       	push	r29
		
		
		if (nodo)
     418:	20 91 06 02 	lds	r18, 0x0206	; 0x800206 <nodo>
     41c:	22 23       	and	r18, r18
     41e:	e9 f0       	breq	.+58     	; 0x45a <usr_frame_received_cb+0x4a>
     420:	ec 01       	movw	r28, r24
		{
			//delay_ms(2000);
			memset(&trama_rx,0,sizeof(trama_rx));
     422:	0e e9       	ldi	r16, 0x9E	; 158
     424:	14 e0       	ldi	r17, 0x04	; 4
     426:	81 e7       	ldi	r24, 0x71	; 113
     428:	f8 01       	movw	r30, r16
     42a:	11 92       	st	Z+, r1
     42c:	8a 95       	dec	r24
     42e:	e9 f7       	brne	.-6      	; 0x42a <usr_frame_received_cb+0x1a>
			memcpy(&trama_rx,frame->mpdu,sizeof(trama_rx));
     430:	ef 81       	ldd	r30, Y+7	; 0x07
     432:	f8 85       	ldd	r31, Y+8	; 0x08
     434:	81 e7       	ldi	r24, 0x71	; 113
     436:	d8 01       	movw	r26, r16
     438:	01 90       	ld	r0, Z+
     43a:	0d 92       	st	X+, r0
     43c:	8a 95       	dec	r24
     43e:	e1 f7       	brne	.-8      	; 0x438 <usr_frame_received_cb+0x28>
			bmm_buffer_free(frame->buffer_header);
     440:	89 81       	ldd	r24, Y+1	; 0x01
     442:	9a 81       	ldd	r25, Y+2	; 0x02
     444:	45 d3       	rcall	.+1674   	; 0xad0 <bmm_buffer_free>
			
			if(trama_rx.add_origen==0xAA03){
     446:	f8 01       	movw	r30, r16
     448:	80 85       	ldd	r24, Z+8	; 0x08
     44a:	91 85       	ldd	r25, Z+9	; 0x09
     44c:	83 30       	cpi	r24, 0x03	; 3
     44e:	9a 4a       	sbci	r25, 0xAA	; 170
     450:	21 f4       	brne	.+8      	; 0x45a <usr_frame_received_cb+0x4a>
				char *payload=trama_rx.carga;
				//memcpy(&payload,trama_rx.carga,11);
				transmit_sample_frame((uint8_t*)payload,20);
     452:	64 e1       	ldi	r22, 0x14	; 20
     454:	88 ea       	ldi	r24, 0xA8	; 168
     456:	94 e0       	ldi	r25, 0x04	; 4
     458:	a8 d0       	rcall	.+336    	; 0x5aa <transmit_sample_frame>
			}
			
		}		
}
     45a:	df 91       	pop	r29
     45c:	cf 91       	pop	r28
     45e:	1f 91       	pop	r17
     460:	0f 91       	pop	r16
     462:	08 95       	ret

00000464 <usr_frame_transmitted_cb>:
* \brief This function needs to be edited by the user for adding  tasks when a frame is transmitted
* \status Status of frame transmission i.e MAC_SUCCESS,MAC_NO_ACK,CHANNEL_ACCESS_FAILURE etc
* \param frame pointer to the transmitted frame
*/
void usr_frame_transmitted_cb(retval_t status, frame_info_t *frame)
{
     464:	08 95       	ret

00000466 <transmit_frame>:
		uint8_t src_addr_mode,
		uint8_t msdu_handle,
		uint8_t *payload,
		uint8_t payload_length,
		bool ack_req,csma_mode_t csma_mode ,bool frame_retry)
{
     466:	4f 92       	push	r4
     468:	5f 92       	push	r5
     46a:	6f 92       	push	r6
     46c:	7f 92       	push	r7
     46e:	8f 92       	push	r8
     470:	af 92       	push	r10
     472:	cf 92       	push	r12
     474:	ef 92       	push	r14
     476:	0f 93       	push	r16
     478:	1f 93       	push	r17
     47a:	cf 93       	push	r28
     47c:	df 93       	push	r29
     47e:	cd b7       	in	r28, 0x3d	; 61
     480:	de b7       	in	r29, 0x3e	; 62
	tx_frame_info = (frame_info_t *)storage_buffer;
	/* Get length of current frame. */
	frame_length = (FRAME_OVERHEAD + payload_length); 

	/* Set payload pointer. */     
	frame_ptr = temp_frame_ptr = (uint8_t *)tx_frame_info +
     482:	a9 e8       	ldi	r26, 0x89	; 137
     484:	b0 e0       	ldi	r27, 0x00	; 0
     486:	ae 19       	sub	r26, r14
     488:	b1 09       	sbc	r27, r1
     48a:	fd 01       	movw	r30, r26
     48c:	e0 5d       	subi	r30, 0xD0	; 208
     48e:	fd 4f       	sbci	r31, 0xFD	; 253
     490:	3f 01       	movw	r6, r30

	/*
	* Payload is stored to the end of the buffer avoiding payload
	* copying by TAL.
	*/
	for (i = 0; i < payload_length; i++) {
     492:	ee 20       	and	r14, r14
     494:	79 f0       	breq	.+30     	; 0x4b4 <transmit_frame+0x4e>
     496:	d8 01       	movw	r26, r16
     498:	44 24       	eor	r4, r4
     49a:	4a 94       	dec	r4
     49c:	4e 0c       	add	r4, r14
     49e:	51 2c       	mov	r5, r1
     4a0:	9f ef       	ldi	r25, 0xFF	; 255
     4a2:	49 1a       	sub	r4, r25
     4a4:	59 0a       	sbc	r5, r25
     4a6:	04 0d       	add	r16, r4
     4a8:	15 1d       	adc	r17, r5
	*temp_frame_ptr++ = *(payload + i);
     4aa:	9d 91       	ld	r25, X+
     4ac:	91 93       	st	Z+, r25

	/*
	* Payload is stored to the end of the buffer avoiding payload
	* copying by TAL.
	*/
	for (i = 0; i < payload_length; i++) {
     4ae:	a0 17       	cp	r26, r16
     4b0:	b1 07       	cpc	r27, r17
     4b2:	d9 f7       	brne	.-10     	; 0x4aa <transmit_frame+0x44>
	*temp_frame_ptr++ = *(payload + i);
	}


	/* Source address */
	if (FCF_SHORT_ADDR == src_addr_mode) {
     4b4:	42 30       	cpi	r20, 0x02	; 2
     4b6:	61 f4       	brne	.+24     	; 0x4d0 <transmit_frame+0x6a>
	uint16_t temp_value,fcf = 0;
	/* Get length of current frame. */

	tx_frame_info = (frame_info_t *)storage_buffer;
	/* Get length of current frame. */
	frame_length = (FRAME_OVERHEAD + payload_length); 
     4b8:	3b e0       	ldi	r19, 0x0B	; 11
     4ba:	3e 0d       	add	r19, r14
	}


	/* Source address */
	if (FCF_SHORT_ADDR == src_addr_mode) {
	frame_ptr -= SHORT_ADDR_LEN;
     4bc:	d3 01       	movw	r26, r6
	convert_16_bit_to_byte_array(tal_pib.ShortAddress, frame_ptr);
     4be:	40 91 58 05 	lds	r20, 0x0558	; 0x800558 <tal_pib+0xc>
     4c2:	50 91 59 05 	lds	r21, 0x0559	; 0x800559 <tal_pib+0xd>
     4c6:	5e 93       	st	-X, r21
     4c8:	4e 93       	st	-X, r20

	fcf |= FCF_SET_SOURCE_ADDR_MODE(FCF_SHORT_ADDR);
     4ca:	40 e0       	ldi	r20, 0x00	; 0
     4cc:	50 e8       	ldi	r21, 0x80	; 128
     4ce:	26 c0       	rjmp	.+76     	; 0x51c <transmit_frame+0xb6>
	} else {
	frame_ptr -= EXT_ADDR_LEN;
     4d0:	d3 01       	movw	r26, r6
     4d2:	18 97       	sbiw	r26, 0x08	; 8
	frame_length += FCF_2_SOURCE_ADDR_OFFSET;
     4d4:	31 e1       	ldi	r19, 0x11	; 17
     4d6:	3e 0d       	add	r19, r14

	convert_64_bit_to_byte_array(tal_pib.IeeeAddress, frame_ptr);
     4d8:	ec e4       	ldi	r30, 0x4C	; 76
     4da:	f5 e0       	ldi	r31, 0x05	; 5
     4dc:	90 81       	ld	r25, Z
     4de:	9c 93       	st	X, r25
     4e0:	91 81       	ldd	r25, Z+1	; 0x01
     4e2:	11 96       	adiw	r26, 0x01	; 1
     4e4:	9c 93       	st	X, r25
     4e6:	11 97       	sbiw	r26, 0x01	; 1
     4e8:	92 81       	ldd	r25, Z+2	; 0x02
     4ea:	12 96       	adiw	r26, 0x02	; 2
     4ec:	9c 93       	st	X, r25
     4ee:	12 97       	sbiw	r26, 0x02	; 2
     4f0:	93 81       	ldd	r25, Z+3	; 0x03
     4f2:	13 96       	adiw	r26, 0x03	; 3
     4f4:	9c 93       	st	X, r25
     4f6:	13 97       	sbiw	r26, 0x03	; 3
     4f8:	94 81       	ldd	r25, Z+4	; 0x04
     4fa:	14 96       	adiw	r26, 0x04	; 4
     4fc:	9c 93       	st	X, r25
     4fe:	14 97       	sbiw	r26, 0x04	; 4
     500:	95 81       	ldd	r25, Z+5	; 0x05
     502:	15 96       	adiw	r26, 0x05	; 5
     504:	9c 93       	st	X, r25
     506:	15 97       	sbiw	r26, 0x05	; 5
     508:	96 81       	ldd	r25, Z+6	; 0x06
     50a:	16 96       	adiw	r26, 0x06	; 6
     50c:	9c 93       	st	X, r25
     50e:	16 97       	sbiw	r26, 0x06	; 6
     510:	97 81       	ldd	r25, Z+7	; 0x07
     512:	17 96       	adiw	r26, 0x07	; 7
     514:	9c 93       	st	X, r25
     516:	17 97       	sbiw	r26, 0x07	; 7

	fcf |= FCF_SET_SOURCE_ADDR_MODE(FCF_LONG_ADDR);
     518:	40 e0       	ldi	r20, 0x00	; 0
     51a:	50 ec       	ldi	r21, 0xC0	; 192
		temp_value = CCPU_ENDIAN_TO_LE16(SRC_PAN_ID);
		convert_16_bit_to_byte_array(temp_value, frame_ptr);
		#endif

	/* Destination address */
	if (FCF_SHORT_ADDR == dst_addr_mode) {
     51c:	82 30       	cpi	r24, 0x02	; 2
     51e:	59 f4       	brne	.+22     	; 0x536 <transmit_frame+0xd0>
		frame_ptr -= SHORT_ADDR_LEN;
		convert_16_bit_to_byte_array(*((uint16_t *)dst_addr),
     520:	fb 01       	movw	r30, r22
     522:	80 81       	ld	r24, Z
     524:	91 81       	ldd	r25, Z+1	; 0x01
     526:	fd 01       	movw	r30, r26
     528:	92 93       	st	-Z, r25
     52a:	82 93       	st	-Z, r24
     52c:	3f 01       	movw	r6, r30
				frame_ptr);

		fcf |= FCF_SET_DEST_ADDR_MODE(FCF_SHORT_ADDR);
     52e:	ca 01       	movw	r24, r20
     530:	80 64       	ori	r24, 0x40	; 64
     532:	98 60       	ori	r25, 0x08	; 8
     534:	0f c0       	rjmp	.+30     	; 0x554 <transmit_frame+0xee>
	} else {
		frame_ptr -= EXT_ADDR_LEN;
     536:	3d 01       	movw	r6, r26
     538:	f8 e0       	ldi	r31, 0x08	; 8
     53a:	6f 1a       	sub	r6, r31
     53c:	71 08       	sbc	r7, r1
		frame_length += PL_POS_DST_ADDR_START;
     53e:	3a 5f       	subi	r19, 0xFA	; 250

		convert_64_bit_to_byte_array(*((uint64_t *)dst_addr),
     540:	88 e0       	ldi	r24, 0x08	; 8
     542:	fb 01       	movw	r30, r22
     544:	d3 01       	movw	r26, r6
     546:	01 90       	ld	r0, Z+
     548:	0d 92       	st	X+, r0
     54a:	8a 95       	dec	r24
     54c:	e1 f7       	brne	.-8      	; 0x546 <transmit_frame+0xe0>
				frame_ptr);

		fcf |= FCF_SET_DEST_ADDR_MODE(FCF_LONG_ADDR);
     54e:	ca 01       	movw	r24, r20
     550:	80 64       	ori	r24, 0x40	; 64
     552:	9c 60       	ori	r25, 0x0C	; 12


	/* Destination PAN-Id */
	temp_value = CCPU_ENDIAN_TO_LE16(DST_PAN_ID);
	frame_ptr -= PAN_ID_LEN;
	convert_16_bit_to_byte_array(temp_value, frame_ptr);
     554:	4e ef       	ldi	r20, 0xFE	; 254
     556:	5a ec       	ldi	r21, 0xCA	; 202
     558:	f3 01       	movw	r30, r6
     55a:	32 97       	sbiw	r30, 0x02	; 2
     55c:	51 83       	std	Z+1, r21	; 0x01
     55e:	40 83       	st	Z, r20

	/* Set DSN. */
	frame_ptr--;
	*frame_ptr = msdu_handle;
     560:	31 97       	sbiw	r30, 0x01	; 1
     562:	20 83       	st	Z, r18

	/* Set the FCF. */
	fcf |= FCF_FRAMETYPE_DATA;
	if (ack_req) {
     564:	c1 10       	cpse	r12, r1
     566:	02 c0       	rjmp	.+4      	; 0x56c <transmit_frame+0x106>
	/* Set DSN. */
	frame_ptr--;
	*frame_ptr = msdu_handle;

	/* Set the FCF. */
	fcf |= FCF_FRAMETYPE_DATA;
     568:	81 60       	ori	r24, 0x01	; 1
     56a:	01 c0       	rjmp	.+2      	; 0x56e <transmit_frame+0x108>
	if (ack_req) {
	fcf |= FCF_ACK_REQUEST;
     56c:	81 62       	ori	r24, 0x21	; 33
	}

	frame_ptr -= FCF_LEN;
	convert_16_bit_to_byte_array(CCPU_ENDIAN_TO_LE16(fcf), frame_ptr);
     56e:	f3 01       	movw	r30, r6
     570:	35 97       	sbiw	r30, 0x05	; 5
     572:	91 83       	std	Z+1, r25	; 0x01
     574:	80 83       	st	Z, r24

	/* First element shall be length of PHY frame. */
	frame_ptr--;
	*frame_ptr = frame_length;
     576:	d3 01       	movw	r26, r6
     578:	16 97       	sbiw	r26, 0x06	; 6
     57a:	3c 93       	st	X, r19

	/* Finished building of frame. */
	tx_frame_info->mpdu = frame_ptr;
     57c:	b0 93 38 02 	sts	0x0238, r27	; 0x800238 <storage_buffer+0x8>
     580:	a0 93 37 02 	sts	0x0237, r26	; 0x800237 <storage_buffer+0x7>

	return(tal_tx_frame(tx_frame_info, csma_mode, frame_retry));
     584:	48 2d       	mov	r20, r8
     586:	6a 2d       	mov	r22, r10
     588:	80 e3       	ldi	r24, 0x30	; 48
     58a:	92 e0       	ldi	r25, 0x02	; 2
     58c:	0e 94 04 0e 	call	0x1c08	; 0x1c08 <tal_tx_frame>
}
     590:	df 91       	pop	r29
     592:	cf 91       	pop	r28
     594:	1f 91       	pop	r17
     596:	0f 91       	pop	r16
     598:	ef 90       	pop	r14
     59a:	cf 90       	pop	r12
     59c:	af 90       	pop	r10
     59e:	8f 90       	pop	r8
     5a0:	7f 90       	pop	r7
     5a2:	6f 90       	pop	r6
     5a4:	5f 90       	pop	r5
     5a6:	4f 90       	pop	r4
     5a8:	08 95       	ret

000005aa <transmit_sample_frame>:
 * \brief This function transmits a sample data frame 
 * \param payload address of the payload to be transmitted
 * \payload_length Length of the payload to be trasnmitted *
 */
void transmit_sample_frame(uint8_t* payload,uint8_t payload_length) 
{
     5aa:	8f 92       	push	r8
     5ac:	af 92       	push	r10
     5ae:	cf 92       	push	r12
     5b0:	ef 92       	push	r14
     5b2:	0f 93       	push	r16
     5b4:	1f 93       	push	r17
     5b6:	cf 93       	push	r28
     5b8:	df 93       	push	r29
     5ba:	1f 92       	push	r1
     5bc:	1f 92       	push	r1
     5be:	cd b7       	in	r28, 0x3d	; 61
     5c0:	de b7       	in	r29, 0x3e	; 62
	static uint16_t seq_num = 0;   
	bool ack_req = ACK_REQ;
	bool frame_retry = FRAME_RETRY;
	csma_mode_t csma_mode = CSMA_MODE;
	uint16_t dst_addr = CCPU_ENDIAN_TO_LE16((uint16_t)DST_ADDR);
     5c2:	21 e0       	ldi	r18, 0x01	; 1
     5c4:	3a ea       	ldi	r19, 0xAA	; 170
     5c6:	3a 83       	std	Y+2, r19	; 0x02
     5c8:	29 83       	std	Y+1, r18	; 0x01

	transmit_frame(
		FCF_SHORT_ADDR,
		(uint8_t*)&dst_addr,
		FCF_SHORT_ADDR,
		seq_num++,
     5ca:	20 91 2e 02 	lds	r18, 0x022E	; 0x80022e <seq_num.3026>
     5ce:	30 91 2f 02 	lds	r19, 0x022F	; 0x80022f <seq_num.3026+0x1>
     5d2:	a9 01       	movw	r20, r18
     5d4:	4f 5f       	subi	r20, 0xFF	; 255
     5d6:	5f 4f       	sbci	r21, 0xFF	; 255
     5d8:	50 93 2f 02 	sts	0x022F, r21	; 0x80022f <seq_num.3026+0x1>
     5dc:	40 93 2e 02 	sts	0x022E, r20	; 0x80022e <seq_num.3026>
	bool ack_req = ACK_REQ;
	bool frame_retry = FRAME_RETRY;
	csma_mode_t csma_mode = CSMA_MODE;
	uint16_t dst_addr = CCPU_ENDIAN_TO_LE16((uint16_t)DST_ADDR);

	transmit_frame(
     5e0:	81 2c       	mov	r8, r1
     5e2:	68 94       	set
     5e4:	aa 24       	eor	r10, r10
     5e6:	a1 f8       	bld	r10, 1
     5e8:	c1 2c       	mov	r12, r1
     5ea:	e6 2e       	mov	r14, r22
     5ec:	8c 01       	movw	r16, r24
     5ee:	42 e0       	ldi	r20, 0x02	; 2
     5f0:	be 01       	movw	r22, r28
     5f2:	6f 5f       	subi	r22, 0xFF	; 255
     5f4:	7f 4f       	sbci	r23, 0xFF	; 255
     5f6:	82 e0       	ldi	r24, 0x02	; 2
     5f8:	36 df       	rcall	.-404    	; 0x466 <transmit_frame>
		payload_length,
		ack_req,
		csma_mode,
		frame_retry);

}
     5fa:	0f 90       	pop	r0
     5fc:	0f 90       	pop	r0
     5fe:	df 91       	pop	r29
     600:	cf 91       	pop	r28
     602:	1f 91       	pop	r17
     604:	0f 91       	pop	r16
     606:	ef 90       	pop	r14
     608:	cf 90       	pop	r12
     60a:	af 90       	pop	r10
     60c:	8f 90       	pop	r8
     60e:	08 95       	ret

00000610 <init_data_reception>:
		   bool mode = true;
		   tal_rxaack_prom_mode_ctrl(true);
		   tal_pib_set(macPromiscuousMode, (pib_value_t *)&mode);
       #endif
       /*RX_AACK_ON Mode is enabled if Promiscuous Mode is not used,else RX is switched on in RX_ON Mode*/
       tal_rx_enable(PHY_RX_ON); 
     610:	86 e0       	ldi	r24, 0x06	; 6
     612:	0c 94 31 0d 	jmp	0x1a62	; 0x1a62 <tal_rx_enable>
     616:	08 95       	ret

00000618 <wireless_init>:

/**
 * \brief This Function initializes the Wireless Module and board components i.e clock,irq etc
 */
void wireless_init(void)
{
     618:	cf 93       	push	r28
     61a:	df 93       	push	r29
     61c:	00 d0       	rcall	.+0      	; 0x61e <wireless_init+0x6>
     61e:	00 d0       	rcall	.+0      	; 0x620 <wireless_init+0x8>
     620:	cd b7       	in	r28, 0x3d	; 61
     622:	de b7       	in	r29, 0x3e	; 62
	/*Initialize IRQ*/
	irq_initialize_vectors();

  sysclk_init();
     624:	39 d0       	rcall	.+114    	; 0x698 <sysclk_init>

	/* Initialize the board.
	 * The board-specific conf_board.h file contains the configuration of
	 * the board initialization.
	 */
	board_init();
     626:	36 d0       	rcall	.+108    	; 0x694 <board_init>


	/*Initialize the Stack SW Timer*/
	sw_timer_init();
     628:	ae d1       	rcall	.+860    	; 0x986 <sw_timer_init>
     62a:	7f d5       	rcall	.+2814   	; 0x112a <tal_init>
	
	/*Initialize the TAL Layer*/
	if(tal_init()!= MAC_SUCCESS)
     62c:	81 11       	cpse	r24, r1
     62e:	ff cf       	rjmp	.-2      	; 0x62e <wireless_init+0x16>
     630:	78 94       	sei
     632:	82 e0       	ldi	r24, 0x02	; 2
	{
	//Error in Initializing the TAL Layer
	app_alert();	
	}
	cpu_irq_enable();
     634:	9a ea       	ldi	r25, 0xAA	; 170
	
	uint16_t src_addr = CCPU_ENDIAN_TO_LE16(SRC_ADDR);
     636:	9a 83       	std	Y+2, r25	; 0x02
     638:	89 83       	std	Y+1, r24	; 0x01
     63a:	8e ef       	ldi	r24, 0xFE	; 254
     63c:	9a ec       	ldi	r25, 0xCA	; 202
	uint16_t pan_id = CCPU_ENDIAN_TO_LE16(SRC_PAN_ID);
     63e:	9c 83       	std	Y+4, r25	; 0x04
     640:	8b 83       	std	Y+3, r24	; 0x03
     642:	8c e0       	ldi	r24, 0x0C	; 12
     644:	8d 83       	std	Y+5, r24	; 0x05
	uint8_t channel = CHANNEL_TRANSMIT_RECEIVE;
     646:	1e 82       	std	Y+6, r1	; 0x06
     648:	be 01       	movw	r22, r28
	uint8_t channel_page = CHANNEL_PAGE_TRANSMIT_RECEIVE;
     64a:	6f 5f       	subi	r22, 0xFF	; 255
	
	/* Set Default address. */
	tal_pib_set(macShortAddress, (pib_value_t *)&src_addr);
     64c:	7f 4f       	sbci	r23, 0xFF	; 255
     64e:	83 e5       	ldi	r24, 0x53	; 83
     650:	0e 94 60 0b 	call	0x16c0	; 0x16c0 <tal_pib_set>
     654:	be 01       	movw	r22, r28
     656:	6d 5f       	subi	r22, 0xFD	; 253

	/* Set PAN ID. */
	tal_pib_set(macPANId, (pib_value_t *)&pan_id);
     658:	7f 4f       	sbci	r23, 0xFF	; 255
     65a:	80 e5       	ldi	r24, 0x50	; 80
     65c:	0e 94 60 0b 	call	0x16c0	; 0x16c0 <tal_pib_set>
     660:	be 01       	movw	r22, r28
     662:	6b 5f       	subi	r22, 0xFB	; 251

	/* Set channel. */ /* Channel 11  is set as default in tal_init() */
	tal_pib_set(phyCurrentChannel, (pib_value_t *)&channel);
     664:	7f 4f       	sbci	r23, 0xFF	; 255
     666:	80 e0       	ldi	r24, 0x00	; 0
     668:	0e 94 60 0b 	call	0x16c0	; 0x16c0 <tal_pib_set>
     66c:	be 01       	movw	r22, r28
     66e:	6a 5f       	subi	r22, 0xFA	; 250
	
	/* Set Channel Page */ /* Channel Page 0  is set as default in tal_init() */
	tal_pib_set(phyCurrentPage,(pib_value_t *)&channel_page);
     670:	7f 4f       	sbci	r23, 0xFF	; 255
     672:	84 e0       	ldi	r24, 0x04	; 4
     674:	0e 94 60 0b 	call	0x16c0	; 0x16c0 <tal_pib_set>
     678:	62 e0       	ldi	r22, 0x02	; 2
     67a:	80 e0       	ldi	r24, 0x00	; 0
    {
	    tal_ant_div_config(ANT_DIVERSITY_ENABLE,ANTENNA_DEFAULT);
    }
    else
    {
	    tal_ant_div_config(ANT_DIVERSITY_DISABLE,ANT_SELECT); 
     67c:	0e 94 40 0e 	call	0x1c80	; 0x1c80 <tal_ant_div_config>
     680:	c7 df       	rcall	.-114    	; 0x610 <init_data_reception>
    }
    #endif


	init_data_reception();
     682:	26 96       	adiw	r28, 0x06	; 6
     684:	0f b6       	in	r0, 0x3f	; 63

}
     686:	f8 94       	cli
     688:	de bf       	out	0x3e, r29	; 62
     68a:	0f be       	out	0x3f, r0	; 63
     68c:	cd bf       	out	0x3d, r28	; 61
     68e:	df 91       	pop	r29
     690:	cf 91       	pop	r28
     692:	08 95       	ret

00000694 <board_init>:
     694:	08 95       	ret

00000696 <modules_init>:
     696:	08 95       	ret

00000698 <sysclk_init>:
     698:	cf 93       	push	r28
     69a:	df 93       	push	r29
     69c:	1f 92       	push	r1
     69e:	cd b7       	in	r28, 0x3d	; 61
     6a0:	de b7       	in	r29, 0x3e	; 62
     6a2:	8f ef       	ldi	r24, 0xFF	; 255
     6a4:	80 93 64 00 	sts	0x0064, r24	; 0x800064 <__TEXT_REGION_LENGTH__+0x700064>
     6a8:	80 93 65 00 	sts	0x0065, r24	; 0x800065 <__TEXT_REGION_LENGTH__+0x700065>
     6ac:	8f b7       	in	r24, 0x3f	; 63
     6ae:	89 83       	std	Y+1, r24	; 0x01
     6b0:	f8 94       	cli
     6b2:	89 81       	ldd	r24, Y+1	; 0x01
     6b4:	5f 93       	push	r21
     6b6:	50 e8       	ldi	r21, 0x80	; 128
     6b8:	50 93 61 00 	sts	0x0061, r21	; 0x800061 <__TEXT_REGION_LENGTH__+0x700061>
     6bc:	50 e0       	ldi	r21, 0x00	; 0
     6be:	50 93 61 00 	sts	0x0061, r21	; 0x800061 <__TEXT_REGION_LENGTH__+0x700061>
     6c2:	5f 91       	pop	r21
     6c4:	8f bf       	out	0x3f, r24	; 63
     6c6:	0f 90       	pop	r0
     6c8:	df 91       	pop	r29
     6ca:	cf 91       	pop	r28
     6cc:	08 95       	ret

000006ce <sysclk_enable_module>:
     6ce:	cf 93       	push	r28
     6d0:	df 93       	push	r29
     6d2:	1f 92       	push	r1
     6d4:	cd b7       	in	r28, 0x3d	; 61
     6d6:	de b7       	in	r29, 0x3e	; 62
     6d8:	9f b7       	in	r25, 0x3f	; 63
     6da:	99 83       	std	Y+1, r25	; 0x01
     6dc:	f8 94       	cli
     6de:	99 81       	ldd	r25, Y+1	; 0x01
     6e0:	82 30       	cpi	r24, 0x02	; 2
     6e2:	40 f4       	brcc	.+16     	; 0x6f4 <sysclk_enable_module+0x26>
     6e4:	e8 2f       	mov	r30, r24
     6e6:	f0 e0       	ldi	r31, 0x00	; 0
     6e8:	ec 59       	subi	r30, 0x9C	; 156
     6ea:	ff 4f       	sbci	r31, 0xFF	; 255
     6ec:	60 95       	com	r22
     6ee:	80 81       	ld	r24, Z
     6f0:	68 23       	and	r22, r24
     6f2:	60 83       	st	Z, r22
     6f4:	9f bf       	out	0x3f, r25	; 63
     6f6:	0f 90       	pop	r0
     6f8:	df 91       	pop	r29
     6fa:	cf 91       	pop	r28
     6fc:	08 95       	ret

000006fe <sysclk_disable_module>:
     6fe:	cf 93       	push	r28
     700:	df 93       	push	r29
     702:	1f 92       	push	r1
     704:	cd b7       	in	r28, 0x3d	; 61
     706:	de b7       	in	r29, 0x3e	; 62
     708:	9f b7       	in	r25, 0x3f	; 63
     70a:	99 83       	std	Y+1, r25	; 0x01
     70c:	f8 94       	cli
     70e:	99 81       	ldd	r25, Y+1	; 0x01
     710:	82 30       	cpi	r24, 0x02	; 2
     712:	38 f4       	brcc	.+14     	; 0x722 <sysclk_disable_module+0x24>
     714:	e8 2f       	mov	r30, r24
     716:	f0 e0       	ldi	r31, 0x00	; 0
     718:	ec 59       	subi	r30, 0x9C	; 156
     71a:	ff 4f       	sbci	r31, 0xFF	; 255
     71c:	80 81       	ld	r24, Z
     71e:	68 2b       	or	r22, r24
     720:	60 83       	st	Z, r22
     722:	9f bf       	out	0x3f, r25	; 63
     724:	0f 90       	pop	r0
     726:	df 91       	pop	r29
     728:	cf 91       	pop	r28
     72a:	08 95       	ret

0000072c <hw_expiry_cb>:
     72c:	80 91 bf 02 	lds	r24, 0x02BF	; 0x8002bf <running_timers>
     730:	88 23       	and	r24, r24
     732:	19 f0       	breq	.+6      	; 0x73a <hw_expiry_cb+0xe>
     734:	81 e0       	ldi	r24, 0x01	; 1
     736:	80 93 43 05 	sts	0x0543, r24	; 0x800543 <timer_trigger>
     73a:	08 95       	ret

0000073c <hw_overflow_cb>:
     73c:	1f 93       	push	r17
     73e:	cf 93       	push	r28
     740:	df 93       	push	r29
     742:	1f 92       	push	r1
     744:	cd b7       	in	r28, 0x3d	; 61
     746:	de b7       	in	r29, 0x3e	; 62
     748:	80 91 0f 05 	lds	r24, 0x050F	; 0x80050f <sys_time>
     74c:	90 91 10 05 	lds	r25, 0x0510	; 0x800510 <sys_time+0x1>
     750:	01 96       	adiw	r24, 0x01	; 1
     752:	90 93 10 05 	sts	0x0510, r25	; 0x800510 <sys_time+0x1>
     756:	80 93 0f 05 	sts	0x050F, r24	; 0x80050f <sys_time>
     75a:	8f b7       	in	r24, 0x3f	; 63
     75c:	89 83       	std	Y+1, r24	; 0x01
     75e:	f8 94       	cli
     760:	19 81       	ldd	r17, Y+1	; 0x01
     762:	80 91 be 02 	lds	r24, 0x02BE	; 0x8002be <running_timer_queue_head>
     766:	8f 3f       	cpi	r24, 0xFF	; 255
     768:	e9 f1       	breq	.+122    	; 0x7e4 <hw_overflow_cb+0xa8>
     76a:	90 e0       	ldi	r25, 0x00	; 0
     76c:	fc 01       	movw	r30, r24
     76e:	ee 0f       	add	r30, r30
     770:	ff 1f       	adc	r31, r31
     772:	9c 01       	movw	r18, r24
     774:	22 0f       	add	r18, r18
     776:	33 1f       	adc	r19, r19
     778:	22 0f       	add	r18, r18
     77a:	33 1f       	adc	r19, r19
     77c:	22 0f       	add	r18, r18
     77e:	33 1f       	adc	r19, r19
     780:	e2 0f       	add	r30, r18
     782:	f3 1f       	adc	r31, r19
     784:	ef 5e       	subi	r30, 0xEF	; 239
     786:	fa 4f       	sbci	r31, 0xFA	; 250
     788:	21 85       	ldd	r18, Z+9	; 0x09
     78a:	21 11       	cpse	r18, r1
     78c:	2b c0       	rjmp	.+86     	; 0x7e4 <hw_overflow_cb+0xa8>
     78e:	fc 01       	movw	r30, r24
     790:	ee 0f       	add	r30, r30
     792:	ff 1f       	adc	r31, r31
     794:	88 0f       	add	r24, r24
     796:	99 1f       	adc	r25, r25
     798:	88 0f       	add	r24, r24
     79a:	99 1f       	adc	r25, r25
     79c:	88 0f       	add	r24, r24
     79e:	99 1f       	adc	r25, r25
     7a0:	e8 0f       	add	r30, r24
     7a2:	f9 1f       	adc	r31, r25
     7a4:	ef 5e       	subi	r30, 0xEF	; 239
     7a6:	fa 4f       	sbci	r31, 0xFA	; 250
     7a8:	80 81       	ld	r24, Z
     7aa:	91 81       	ldd	r25, Z+1	; 0x01
     7ac:	a2 81       	ldd	r26, Z+2	; 0x02
     7ae:	b3 81       	ldd	r27, Z+3	; 0x03
     7b0:	20 91 0f 05 	lds	r18, 0x050F	; 0x80050f <sys_time>
     7b4:	30 91 10 05 	lds	r19, 0x0510	; 0x800510 <sys_time+0x1>
     7b8:	2a 17       	cp	r18, r26
     7ba:	3b 07       	cpc	r19, r27
     7bc:	99 f4       	brne	.+38     	; 0x7e4 <hw_overflow_cb+0xa8>
     7be:	3e dd       	rcall	.-1412   	; 0x23c <common_tc_delay>
     7c0:	80 91 be 02 	lds	r24, 0x02BE	; 0x8002be <running_timer_queue_head>
     7c4:	90 e0       	ldi	r25, 0x00	; 0
     7c6:	fc 01       	movw	r30, r24
     7c8:	ee 0f       	add	r30, r30
     7ca:	ff 1f       	adc	r31, r31
     7cc:	88 0f       	add	r24, r24
     7ce:	99 1f       	adc	r25, r25
     7d0:	88 0f       	add	r24, r24
     7d2:	99 1f       	adc	r25, r25
     7d4:	88 0f       	add	r24, r24
     7d6:	99 1f       	adc	r25, r25
     7d8:	e8 0f       	add	r30, r24
     7da:	f9 1f       	adc	r31, r25
     7dc:	ef 5e       	subi	r30, 0xEF	; 239
     7de:	fa 4f       	sbci	r31, 0xFA	; 250
     7e0:	81 e0       	ldi	r24, 0x01	; 1
     7e2:	81 87       	std	Z+9, r24	; 0x09
     7e4:	1f bf       	out	0x3f, r17	; 63
     7e6:	0f 90       	pop	r0
     7e8:	df 91       	pop	r29
     7ea:	cf 91       	pop	r28
     7ec:	1f 91       	pop	r17
     7ee:	08 95       	ret

000007f0 <load_hw_timer>:
     7f0:	0f 93       	push	r16
     7f2:	1f 93       	push	r17
     7f4:	cf 93       	push	r28
     7f6:	df 93       	push	r29
     7f8:	c8 2f       	mov	r28, r24
     7fa:	8f 3f       	cpi	r24, 0xFF	; 255
     7fc:	09 f4       	brne	.+2      	; 0x800 <load_hw_timer+0x10>
     7fe:	60 c0       	rjmp	.+192    	; 0x8c0 <load_hw_timer+0xd0>
     800:	00 91 0f 05 	lds	r16, 0x050F	; 0x80050f <sys_time>
     804:	10 91 10 05 	lds	r17, 0x0510	; 0x800510 <sys_time+0x1>
     808:	d6 dc       	rcall	.-1620   	; 0x1b6 <common_tc_read_count>
     80a:	40 91 0f 05 	lds	r20, 0x050F	; 0x80050f <sys_time>
     80e:	50 91 10 05 	lds	r21, 0x0510	; 0x800510 <sys_time+0x1>
     812:	04 17       	cp	r16, r20
     814:	15 07       	cpc	r17, r21
     816:	a1 f7       	brne	.-24     	; 0x800 <load_hw_timer+0x10>
     818:	d0 e0       	ldi	r29, 0x00	; 0
     81a:	60 e0       	ldi	r22, 0x00	; 0
     81c:	70 e0       	ldi	r23, 0x00	; 0
     81e:	fe 01       	movw	r30, r28
     820:	ee 0f       	add	r30, r30
     822:	ff 1f       	adc	r31, r31
     824:	9e 01       	movw	r18, r28
     826:	22 0f       	add	r18, r18
     828:	33 1f       	adc	r19, r19
     82a:	22 0f       	add	r18, r18
     82c:	33 1f       	adc	r19, r19
     82e:	22 0f       	add	r18, r18
     830:	33 1f       	adc	r19, r19
     832:	e2 0f       	add	r30, r18
     834:	f3 1f       	adc	r31, r19
     836:	ef 5e       	subi	r30, 0xEF	; 239
     838:	fa 4f       	sbci	r31, 0xFA	; 250
     83a:	ba 01       	movw	r22, r20
     83c:	55 27       	eor	r21, r21
     83e:	44 27       	eor	r20, r20
     840:	a0 e0       	ldi	r26, 0x00	; 0
     842:	b0 e0       	ldi	r27, 0x00	; 0
     844:	48 2b       	or	r20, r24
     846:	59 2b       	or	r21, r25
     848:	6a 2b       	or	r22, r26
     84a:	7b 2b       	or	r23, r27
     84c:	80 81       	ld	r24, Z
     84e:	91 81       	ldd	r25, Z+1	; 0x01
     850:	a2 81       	ldd	r26, Z+2	; 0x02
     852:	b3 81       	ldd	r27, Z+3	; 0x03
     854:	84 1b       	sub	r24, r20
     856:	95 0b       	sbc	r25, r21
     858:	a6 0b       	sbc	r26, r22
     85a:	b7 0b       	sbc	r27, r23
     85c:	8f 3f       	cpi	r24, 0xFF	; 255
     85e:	2f ef       	ldi	r18, 0xFF	; 255
     860:	92 07       	cpc	r25, r18
     862:	a2 07       	cpc	r26, r18
     864:	2f e7       	ldi	r18, 0x7F	; 127
     866:	b2 07       	cpc	r27, r18
     868:	38 f5       	brcc	.+78     	; 0x8b8 <load_hw_timer+0xc8>
     86a:	9e 01       	movw	r18, r28
     86c:	22 0f       	add	r18, r18
     86e:	33 1f       	adc	r19, r19
     870:	22 0f       	add	r18, r18
     872:	33 1f       	adc	r19, r19
     874:	22 0f       	add	r18, r18
     876:	33 1f       	adc	r19, r19
     878:	fe 01       	movw	r30, r28
     87a:	ee 0f       	add	r30, r30
     87c:	ff 1f       	adc	r31, r31
     87e:	e2 0f       	add	r30, r18
     880:	f3 1f       	adc	r31, r19
     882:	ef 5e       	subi	r30, 0xEF	; 239
     884:	fa 4f       	sbci	r31, 0xFA	; 250
     886:	21 85       	ldd	r18, Z+9	; 0x09
     888:	21 11       	cpse	r18, r1
     88a:	1b c0       	rjmp	.+54     	; 0x8c2 <load_hw_timer+0xd2>
     88c:	00 97       	sbiw	r24, 0x00	; 0
     88e:	21 e0       	ldi	r18, 0x01	; 1
     890:	a2 07       	cpc	r26, r18
     892:	b1 05       	cpc	r27, r1
     894:	b0 f4       	brcc	.+44     	; 0x8c2 <load_hw_timer+0xd2>
     896:	d2 dc       	rcall	.-1628   	; 0x23c <common_tc_delay>
     898:	ce 01       	movw	r24, r28
     89a:	88 0f       	add	r24, r24
     89c:	99 1f       	adc	r25, r25
     89e:	cc 0f       	add	r28, r28
     8a0:	dd 1f       	adc	r29, r29
     8a2:	cc 0f       	add	r28, r28
     8a4:	dd 1f       	adc	r29, r29
     8a6:	cc 0f       	add	r28, r28
     8a8:	dd 1f       	adc	r29, r29
     8aa:	c8 0f       	add	r28, r24
     8ac:	d9 1f       	adc	r29, r25
     8ae:	cf 5e       	subi	r28, 0xEF	; 239
     8b0:	da 4f       	sbci	r29, 0xFA	; 250
     8b2:	81 e0       	ldi	r24, 0x01	; 1
     8b4:	89 87       	std	Y+9, r24	; 0x09
     8b6:	05 c0       	rjmp	.+10     	; 0x8c2 <load_hw_timer+0xd2>
     8b8:	81 e0       	ldi	r24, 0x01	; 1
     8ba:	80 93 43 05 	sts	0x0543, r24	; 0x800543 <timer_trigger>
     8be:	01 c0       	rjmp	.+2      	; 0x8c2 <load_hw_timer+0xd2>
     8c0:	a2 dc       	rcall	.-1724   	; 0x206 <common_tc_compare_stop>
     8c2:	df 91       	pop	r29
     8c4:	cf 91       	pop	r28
     8c6:	1f 91       	pop	r17
     8c8:	0f 91       	pop	r16
     8ca:	08 95       	ret

000008cc <internal_timer_handler>:
     8cc:	80 91 43 05 	lds	r24, 0x0543	; 0x800543 <timer_trigger>
     8d0:	88 23       	and	r24, r24
     8d2:	09 f4       	brne	.+2      	; 0x8d6 <internal_timer_handler+0xa>
     8d4:	57 c0       	rjmp	.+174    	; 0x984 <internal_timer_handler+0xb8>
     8d6:	10 92 43 05 	sts	0x0543, r1	; 0x800543 <timer_trigger>
     8da:	80 91 bf 02 	lds	r24, 0x02BF	; 0x8002bf <running_timers>
     8de:	88 23       	and	r24, r24
     8e0:	09 f4       	brne	.+2      	; 0x8e4 <internal_timer_handler+0x18>
     8e2:	50 c0       	rjmp	.+160    	; 0x984 <internal_timer_handler+0xb8>
     8e4:	80 91 bd 02 	lds	r24, 0x02BD	; 0x8002bd <expired_timer_queue_head>
     8e8:	8f 3f       	cpi	r24, 0xFF	; 255
     8ea:	59 f4       	brne	.+22     	; 0x902 <internal_timer_handler+0x36>
     8ec:	80 91 bc 02 	lds	r24, 0x02BC	; 0x8002bc <expired_timer_queue_tail>
     8f0:	8f 3f       	cpi	r24, 0xFF	; 255
     8f2:	39 f4       	brne	.+14     	; 0x902 <internal_timer_handler+0x36>
     8f4:	80 91 be 02 	lds	r24, 0x02BE	; 0x8002be <running_timer_queue_head>
     8f8:	80 93 bc 02 	sts	0x02BC, r24	; 0x8002bc <expired_timer_queue_tail>
     8fc:	80 93 bd 02 	sts	0x02BD, r24	; 0x8002bd <expired_timer_queue_head>
     900:	15 c0       	rjmp	.+42     	; 0x92c <internal_timer_handler+0x60>
     902:	20 91 be 02 	lds	r18, 0x02BE	; 0x8002be <running_timer_queue_head>
     906:	80 91 bc 02 	lds	r24, 0x02BC	; 0x8002bc <expired_timer_queue_tail>
     90a:	90 e0       	ldi	r25, 0x00	; 0
     90c:	fc 01       	movw	r30, r24
     90e:	ee 0f       	add	r30, r30
     910:	ff 1f       	adc	r31, r31
     912:	88 0f       	add	r24, r24
     914:	99 1f       	adc	r25, r25
     916:	88 0f       	add	r24, r24
     918:	99 1f       	adc	r25, r25
     91a:	88 0f       	add	r24, r24
     91c:	99 1f       	adc	r25, r25
     91e:	e8 0f       	add	r30, r24
     920:	f9 1f       	adc	r31, r25
     922:	ef 5e       	subi	r30, 0xEF	; 239
     924:	fa 4f       	sbci	r31, 0xFA	; 250
     926:	20 87       	std	Z+8, r18	; 0x08
     928:	20 93 bc 02 	sts	0x02BC, r18	; 0x8002bc <expired_timer_queue_tail>
     92c:	80 91 be 02 	lds	r24, 0x02BE	; 0x8002be <running_timer_queue_head>
     930:	90 e0       	ldi	r25, 0x00	; 0
     932:	fc 01       	movw	r30, r24
     934:	ee 0f       	add	r30, r30
     936:	ff 1f       	adc	r31, r31
     938:	88 0f       	add	r24, r24
     93a:	99 1f       	adc	r25, r25
     93c:	88 0f       	add	r24, r24
     93e:	99 1f       	adc	r25, r25
     940:	88 0f       	add	r24, r24
     942:	99 1f       	adc	r25, r25
     944:	e8 0f       	add	r30, r24
     946:	f9 1f       	adc	r31, r25
     948:	ef 5e       	subi	r30, 0xEF	; 239
     94a:	fa 4f       	sbci	r31, 0xFA	; 250
     94c:	80 85       	ldd	r24, Z+8	; 0x08
     94e:	80 93 be 02 	sts	0x02BE, r24	; 0x8002be <running_timer_queue_head>
     952:	20 91 bc 02 	lds	r18, 0x02BC	; 0x8002bc <expired_timer_queue_tail>
     956:	30 e0       	ldi	r19, 0x00	; 0
     958:	f9 01       	movw	r30, r18
     95a:	ee 0f       	add	r30, r30
     95c:	ff 1f       	adc	r31, r31
     95e:	22 0f       	add	r18, r18
     960:	33 1f       	adc	r19, r19
     962:	22 0f       	add	r18, r18
     964:	33 1f       	adc	r19, r19
     966:	22 0f       	add	r18, r18
     968:	33 1f       	adc	r19, r19
     96a:	e2 0f       	add	r30, r18
     96c:	f3 1f       	adc	r31, r19
     96e:	ef 5e       	subi	r30, 0xEF	; 239
     970:	fa 4f       	sbci	r31, 0xFA	; 250
     972:	9f ef       	ldi	r25, 0xFF	; 255
     974:	90 87       	std	Z+8, r25	; 0x08
     976:	90 91 bf 02 	lds	r25, 0x02BF	; 0x8002bf <running_timers>
     97a:	91 50       	subi	r25, 0x01	; 1
     97c:	90 93 bf 02 	sts	0x02BF, r25	; 0x8002bf <running_timers>
     980:	91 11       	cpse	r25, r1
     982:	36 cf       	rjmp	.-404    	; 0x7f0 <load_hw_timer>
     984:	08 95       	ret

00000986 <sw_timer_init>:
     986:	10 92 bf 02 	sts	0x02BF, r1	; 0x8002bf <running_timers>
     98a:	10 92 43 05 	sts	0x0543, r1	; 0x800543 <timer_trigger>
     98e:	10 92 10 05 	sts	0x0510, r1	; 0x800510 <sys_time+0x1>
     992:	10 92 0f 05 	sts	0x050F, r1	; 0x80050f <sys_time>
     996:	8f ef       	ldi	r24, 0xFF	; 255
     998:	80 93 be 02 	sts	0x02BE, r24	; 0x8002be <running_timer_queue_head>
     99c:	80 93 bd 02 	sts	0x02BD, r24	; 0x8002bd <expired_timer_queue_head>
     9a0:	80 93 bc 02 	sts	0x02BC, r24	; 0x8002bc <expired_timer_queue_tail>
     9a4:	e1 e1       	ldi	r30, 0x11	; 17
     9a6:	f5 e0       	ldi	r31, 0x05	; 5
     9a8:	23 e4       	ldi	r18, 0x43	; 67
     9aa:	35 e0       	ldi	r19, 0x05	; 5
     9ac:	80 87       	std	Z+8, r24	; 0x08
     9ae:	15 82       	std	Z+5, r1	; 0x05
     9b0:	14 82       	std	Z+4, r1	; 0x04
     9b2:	3a 96       	adiw	r30, 0x0a	; 10
     9b4:	e2 17       	cp	r30, r18
     9b6:	f3 07       	cpc	r31, r19
     9b8:	c9 f7       	brne	.-14     	; 0x9ac <sw_timer_init+0x26>
     9ba:	10 92 bb 02 	sts	0x02BB, r1	; 0x8002bb <alloc_timer_id>
     9be:	8e e9       	ldi	r24, 0x9E	; 158
     9c0:	93 e0       	ldi	r25, 0x03	; 3
     9c2:	fa dc       	rcall	.-1548   	; 0x3b8 <set_common_tc_overflow_callback>
     9c4:	86 e9       	ldi	r24, 0x96	; 150
     9c6:	93 e0       	ldi	r25, 0x03	; 3
     9c8:	fc dc       	rcall	.-1544   	; 0x3c2 <set_common_tc_expiry_callback>
     9ca:	ad cc       	rjmp	.-1702   	; 0x326 <common_tc_init>
     9cc:	08 95       	ret

000009ce <sw_timer_service>:
     9ce:	0f 93       	push	r16
     9d0:	1f 93       	push	r17
     9d2:	cf 93       	push	r28
     9d4:	df 93       	push	r29
     9d6:	1f 92       	push	r1
     9d8:	1f 92       	push	r1
     9da:	cd b7       	in	r28, 0x3d	; 61
     9dc:	de b7       	in	r29, 0x3e	; 62
     9de:	8f b7       	in	r24, 0x3f	; 63
     9e0:	8a 83       	std	Y+2, r24	; 0x02
     9e2:	f8 94       	cli
     9e4:	1a 81       	ldd	r17, Y+2	; 0x02
     9e6:	72 df       	rcall	.-284    	; 0x8cc <internal_timer_handler>
     9e8:	1f bf       	out	0x3f, r17	; 63
     9ea:	1f ef       	ldi	r17, 0xFF	; 255
     9ec:	01 2f       	mov	r16, r17
     9ee:	37 c0       	rjmp	.+110    	; 0xa5e <sw_timer_service+0x90>
     9f0:	8f b7       	in	r24, 0x3f	; 63
     9f2:	89 83       	std	Y+1, r24	; 0x01
     9f4:	f8 94       	cli
     9f6:	29 81       	ldd	r18, Y+1	; 0x01
     9f8:	80 91 bd 02 	lds	r24, 0x02BD	; 0x8002bd <expired_timer_queue_head>
     9fc:	90 e0       	ldi	r25, 0x00	; 0
     9fe:	dc 01       	movw	r26, r24
     a00:	aa 0f       	add	r26, r26
     a02:	bb 1f       	adc	r27, r27
     a04:	88 0f       	add	r24, r24
     a06:	99 1f       	adc	r25, r25
     a08:	88 0f       	add	r24, r24
     a0a:	99 1f       	adc	r25, r25
     a0c:	88 0f       	add	r24, r24
     a0e:	99 1f       	adc	r25, r25
     a10:	a8 0f       	add	r26, r24
     a12:	b9 1f       	adc	r27, r25
     a14:	af 5e       	subi	r26, 0xEF	; 239
     a16:	ba 4f       	sbci	r27, 0xFA	; 250
     a18:	18 96       	adiw	r26, 0x08	; 8
     a1a:	9c 91       	ld	r25, X
     a1c:	18 97       	sbiw	r26, 0x08	; 8
     a1e:	14 96       	adiw	r26, 0x04	; 4
     a20:	ed 91       	ld	r30, X+
     a22:	fc 91       	ld	r31, X
     a24:	15 97       	sbiw	r26, 0x05	; 5
     a26:	16 96       	adiw	r26, 0x06	; 6
     a28:	4d 91       	ld	r20, X+
     a2a:	5c 91       	ld	r21, X
     a2c:	17 97       	sbiw	r26, 0x07	; 7
     a2e:	18 96       	adiw	r26, 0x08	; 8
     a30:	1c 93       	st	X, r17
     a32:	18 97       	sbiw	r26, 0x08	; 8
     a34:	15 96       	adiw	r26, 0x05	; 5
     a36:	1c 92       	st	X, r1
     a38:	1e 92       	st	-X, r1
     a3a:	14 97       	sbiw	r26, 0x04	; 4
     a3c:	17 96       	adiw	r26, 0x07	; 7
     a3e:	1c 92       	st	X, r1
     a40:	1e 92       	st	-X, r1
     a42:	16 97       	sbiw	r26, 0x06	; 6
     a44:	19 96       	adiw	r26, 0x09	; 9
     a46:	1c 92       	st	X, r1
     a48:	90 93 bd 02 	sts	0x02BD, r25	; 0x8002bd <expired_timer_queue_head>
     a4c:	9f 3f       	cpi	r25, 0xFF	; 255
     a4e:	11 f4       	brne	.+4      	; 0xa54 <sw_timer_service+0x86>
     a50:	00 93 bc 02 	sts	0x02BC, r16	; 0x8002bc <expired_timer_queue_tail>
     a54:	2f bf       	out	0x3f, r18	; 63
     a56:	30 97       	sbiw	r30, 0x00	; 0
     a58:	11 f0       	breq	.+4      	; 0xa5e <sw_timer_service+0x90>
     a5a:	ca 01       	movw	r24, r20
     a5c:	19 95       	eicall
     a5e:	80 91 bd 02 	lds	r24, 0x02BD	; 0x8002bd <expired_timer_queue_head>
     a62:	8f 3f       	cpi	r24, 0xFF	; 255
     a64:	29 f6       	brne	.-118    	; 0x9f0 <sw_timer_service+0x22>
     a66:	0f 90       	pop	r0
     a68:	0f 90       	pop	r0
     a6a:	df 91       	pop	r29
     a6c:	cf 91       	pop	r28
     a6e:	1f 91       	pop	r17
     a70:	0f 91       	pop	r16
     a72:	08 95       	ret

00000a74 <pal_init>:
     a74:	80 e0       	ldi	r24, 0x00	; 0
     a76:	08 95       	ret

00000a78 <pal_task>:
     a78:	aa cf       	rjmp	.-172    	; 0x9ce <sw_timer_service>
     a7a:	08 95       	ret

00000a7c <bmm_buffer_init>:
     a7c:	cf 93       	push	r28
     a7e:	df 93       	push	r29
     a80:	80 ec       	ldi	r24, 0xC0	; 192
     a82:	92 e0       	ldi	r25, 0x02	; 2
     a84:	b0 d0       	rcall	.+352    	; 0xbe6 <qmm_queue_init>
     a86:	c5 ec       	ldi	r28, 0xC5	; 197
     a88:	d2 e0       	ldi	r29, 0x02	; 2
     a8a:	81 ed       	ldi	r24, 0xD1	; 209
     a8c:	92 e0       	ldi	r25, 0x02	; 2
     a8e:	99 83       	std	Y+1, r25	; 0x01
     a90:	88 83       	st	Y, r24
     a92:	be 01       	movw	r22, r28
     a94:	80 ec       	ldi	r24, 0xC0	; 192
     a96:	92 e0       	ldi	r25, 0x02	; 2
     a98:	ad d0       	rcall	.+346    	; 0xbf4 <qmm_queue_append>
     a9a:	8c e5       	ldi	r24, 0x5C	; 92
     a9c:	93 e0       	ldi	r25, 0x03	; 3
     a9e:	9d 83       	std	Y+5, r25	; 0x05
     aa0:	8c 83       	std	Y+4, r24	; 0x04
     aa2:	69 ec       	ldi	r22, 0xC9	; 201
     aa4:	72 e0       	ldi	r23, 0x02	; 2
     aa6:	80 ec       	ldi	r24, 0xC0	; 192
     aa8:	92 e0       	ldi	r25, 0x02	; 2
     aaa:	a4 d0       	rcall	.+328    	; 0xbf4 <qmm_queue_append>
     aac:	87 ee       	ldi	r24, 0xE7	; 231
     aae:	93 e0       	ldi	r25, 0x03	; 3
     ab0:	99 87       	std	Y+9, r25	; 0x09
     ab2:	88 87       	std	Y+8, r24	; 0x08
     ab4:	6d ec       	ldi	r22, 0xCD	; 205
     ab6:	72 e0       	ldi	r23, 0x02	; 2
     ab8:	80 ec       	ldi	r24, 0xC0	; 192
     aba:	92 e0       	ldi	r25, 0x02	; 2
     abc:	9b d0       	rcall	.+310    	; 0xbf4 <qmm_queue_append>
     abe:	df 91       	pop	r29
     ac0:	cf 91       	pop	r28
     ac2:	08 95       	ret

00000ac4 <bmm_buffer_alloc>:
     ac4:	60 e0       	ldi	r22, 0x00	; 0
     ac6:	70 e0       	ldi	r23, 0x00	; 0
     ac8:	80 ec       	ldi	r24, 0xC0	; 192
     aca:	92 e0       	ldi	r25, 0x02	; 2
     acc:	b8 c0       	rjmp	.+368    	; 0xc3e <qmm_queue_remove>
     ace:	08 95       	ret

00000ad0 <bmm_buffer_free>:
     ad0:	00 97       	sbiw	r24, 0x00	; 0
     ad2:	21 f0       	breq	.+8      	; 0xadc <bmm_buffer_free+0xc>
     ad4:	bc 01       	movw	r22, r24
     ad6:	80 ec       	ldi	r24, 0xC0	; 192
     ad8:	92 e0       	ldi	r25, 0x02	; 2
     ada:	8c c0       	rjmp	.+280    	; 0xbf4 <qmm_queue_append>
     adc:	08 95       	ret

00000ade <queue_read_or_remove>:
     ade:	8f 92       	push	r8
     ae0:	9f 92       	push	r9
     ae2:	af 92       	push	r10
     ae4:	bf 92       	push	r11
     ae6:	cf 92       	push	r12
     ae8:	df 92       	push	r13
     aea:	ef 92       	push	r14
     aec:	ff 92       	push	r15
     aee:	0f 93       	push	r16
     af0:	1f 93       	push	r17
     af2:	cf 93       	push	r28
     af4:	df 93       	push	r29
     af6:	1f 92       	push	r1
     af8:	cd b7       	in	r28, 0x3d	; 61
     afa:	de b7       	in	r29, 0x3e	; 62
     afc:	2f b7       	in	r18, 0x3f	; 63
     afe:	29 83       	std	Y+1, r18	; 0x01
     b00:	f8 94       	cli
     b02:	89 80       	ldd	r8, Y+1	; 0x01
     b04:	dc 01       	movw	r26, r24
     b06:	14 96       	adiw	r26, 0x04	; 4
     b08:	2c 91       	ld	r18, X
     b0a:	22 23       	and	r18, r18
     b0c:	09 f4       	brne	.+2      	; 0xb10 <queue_read_or_remove+0x32>
     b0e:	56 c0       	rjmp	.+172    	; 0xbbc <queue_read_or_remove+0xde>
     b10:	7a 01       	movw	r14, r20
     b12:	96 2e       	mov	r9, r22
     b14:	5c 01       	movw	r10, r24
     b16:	fc 01       	movw	r30, r24
     b18:	00 81       	ld	r16, Z
     b1a:	11 81       	ldd	r17, Z+1	; 0x01
     b1c:	45 2b       	or	r20, r21
     b1e:	e1 f0       	breq	.+56     	; 0xb58 <queue_read_or_remove+0x7a>
     b20:	01 15       	cp	r16, r1
     b22:	11 05       	cpc	r17, r1
     b24:	09 f4       	brne	.+2      	; 0xb28 <queue_read_or_remove+0x4a>
     b26:	4d c0       	rjmp	.+154    	; 0xbc2 <queue_read_or_remove+0xe4>
     b28:	68 01       	movw	r12, r16
     b2a:	01 c0       	rjmp	.+2      	; 0xb2e <queue_read_or_remove+0x50>
     b2c:	89 01       	movw	r16, r18
     b2e:	d7 01       	movw	r26, r14
     b30:	12 96       	adiw	r26, 0x02	; 2
     b32:	6d 91       	ld	r22, X+
     b34:	7c 91       	ld	r23, X
     b36:	13 97       	sbiw	r26, 0x03	; 3
     b38:	ed 91       	ld	r30, X+
     b3a:	fc 91       	ld	r31, X
     b3c:	d8 01       	movw	r26, r16
     b3e:	8d 91       	ld	r24, X+
     b40:	9c 91       	ld	r25, X
     b42:	19 95       	eicall
     b44:	81 11       	cpse	r24, r1
     b46:	09 c0       	rjmp	.+18     	; 0xb5a <queue_read_or_remove+0x7c>
     b48:	f8 01       	movw	r30, r16
     b4a:	22 81       	ldd	r18, Z+2	; 0x02
     b4c:	33 81       	ldd	r19, Z+3	; 0x03
     b4e:	68 01       	movw	r12, r16
     b50:	21 15       	cp	r18, r1
     b52:	31 05       	cpc	r19, r1
     b54:	59 f7       	brne	.-42     	; 0xb2c <queue_read_or_remove+0x4e>
     b56:	35 c0       	rjmp	.+106    	; 0xbc2 <queue_read_or_remove+0xe4>
     b58:	68 01       	movw	r12, r16
     b5a:	01 15       	cp	r16, r1
     b5c:	11 05       	cpc	r17, r1
     b5e:	99 f1       	breq	.+102    	; 0xbc6 <queue_read_or_remove+0xe8>
     b60:	91 10       	cpse	r9, r1
     b62:	31 c0       	rjmp	.+98     	; 0xbc6 <queue_read_or_remove+0xe8>
     b64:	d5 01       	movw	r26, r10
     b66:	8d 91       	ld	r24, X+
     b68:	9c 91       	ld	r25, X
     b6a:	11 97       	sbiw	r26, 0x01	; 1
     b6c:	08 17       	cp	r16, r24
     b6e:	19 07       	cpc	r17, r25
     b70:	31 f4       	brne	.+12     	; 0xb7e <queue_read_or_remove+0xa0>
     b72:	f8 01       	movw	r30, r16
     b74:	82 81       	ldd	r24, Z+2	; 0x02
     b76:	93 81       	ldd	r25, Z+3	; 0x03
     b78:	8d 93       	st	X+, r24
     b7a:	9c 93       	st	X, r25
     b7c:	08 c0       	rjmp	.+16     	; 0xb8e <queue_read_or_remove+0xb0>
     b7e:	d8 01       	movw	r26, r16
     b80:	12 96       	adiw	r26, 0x02	; 2
     b82:	8d 91       	ld	r24, X+
     b84:	9c 91       	ld	r25, X
     b86:	13 97       	sbiw	r26, 0x03	; 3
     b88:	f6 01       	movw	r30, r12
     b8a:	93 83       	std	Z+3, r25	; 0x03
     b8c:	82 83       	std	Z+2, r24	; 0x02
     b8e:	d5 01       	movw	r26, r10
     b90:	12 96       	adiw	r26, 0x02	; 2
     b92:	8d 91       	ld	r24, X+
     b94:	9c 91       	ld	r25, X
     b96:	13 97       	sbiw	r26, 0x03	; 3
     b98:	08 17       	cp	r16, r24
     b9a:	19 07       	cpc	r17, r25
     b9c:	21 f4       	brne	.+8      	; 0xba6 <queue_read_or_remove+0xc8>
     b9e:	13 96       	adiw	r26, 0x03	; 3
     ba0:	dc 92       	st	X, r13
     ba2:	ce 92       	st	-X, r12
     ba4:	12 97       	sbiw	r26, 0x02	; 2
     ba6:	f5 01       	movw	r30, r10
     ba8:	84 81       	ldd	r24, Z+4	; 0x04
     baa:	81 50       	subi	r24, 0x01	; 1
     bac:	84 83       	std	Z+4, r24	; 0x04
     bae:	80 81       	ld	r24, Z
     bb0:	91 81       	ldd	r25, Z+1	; 0x01
     bb2:	89 2b       	or	r24, r25
     bb4:	41 f4       	brne	.+16     	; 0xbc6 <queue_read_or_remove+0xe8>
     bb6:	13 82       	std	Z+3, r1	; 0x03
     bb8:	12 82       	std	Z+2, r1	; 0x02
     bba:	05 c0       	rjmp	.+10     	; 0xbc6 <queue_read_or_remove+0xe8>
     bbc:	00 e0       	ldi	r16, 0x00	; 0
     bbe:	10 e0       	ldi	r17, 0x00	; 0
     bc0:	02 c0       	rjmp	.+4      	; 0xbc6 <queue_read_or_remove+0xe8>
     bc2:	00 e0       	ldi	r16, 0x00	; 0
     bc4:	10 e0       	ldi	r17, 0x00	; 0
     bc6:	8f be       	out	0x3f, r8	; 63
     bc8:	c8 01       	movw	r24, r16
     bca:	0f 90       	pop	r0
     bcc:	df 91       	pop	r29
     bce:	cf 91       	pop	r28
     bd0:	1f 91       	pop	r17
     bd2:	0f 91       	pop	r16
     bd4:	ff 90       	pop	r15
     bd6:	ef 90       	pop	r14
     bd8:	df 90       	pop	r13
     bda:	cf 90       	pop	r12
     bdc:	bf 90       	pop	r11
     bde:	af 90       	pop	r10
     be0:	9f 90       	pop	r9
     be2:	8f 90       	pop	r8
     be4:	08 95       	ret

00000be6 <qmm_queue_init>:
     be6:	fc 01       	movw	r30, r24
     be8:	11 82       	std	Z+1, r1	; 0x01
     bea:	10 82       	st	Z, r1
     bec:	13 82       	std	Z+3, r1	; 0x03
     bee:	12 82       	std	Z+2, r1	; 0x02
     bf0:	14 82       	std	Z+4, r1	; 0x04
     bf2:	08 95       	ret

00000bf4 <qmm_queue_append>:
     bf4:	cf 93       	push	r28
     bf6:	df 93       	push	r29
     bf8:	1f 92       	push	r1
     bfa:	cd b7       	in	r28, 0x3d	; 61
     bfc:	de b7       	in	r29, 0x3e	; 62
     bfe:	fc 01       	movw	r30, r24
     c00:	8f b7       	in	r24, 0x3f	; 63
     c02:	89 83       	std	Y+1, r24	; 0x01
     c04:	f8 94       	cli
     c06:	99 81       	ldd	r25, Y+1	; 0x01
     c08:	84 81       	ldd	r24, Z+4	; 0x04
     c0a:	81 11       	cpse	r24, r1
     c0c:	03 c0       	rjmp	.+6      	; 0xc14 <qmm_queue_append+0x20>
     c0e:	71 83       	std	Z+1, r23	; 0x01
     c10:	60 83       	st	Z, r22
     c12:	06 c0       	rjmp	.+12     	; 0xc20 <qmm_queue_append+0x2c>
     c14:	a2 81       	ldd	r26, Z+2	; 0x02
     c16:	b3 81       	ldd	r27, Z+3	; 0x03
     c18:	13 96       	adiw	r26, 0x03	; 3
     c1a:	7c 93       	st	X, r23
     c1c:	6e 93       	st	-X, r22
     c1e:	12 97       	sbiw	r26, 0x02	; 2
     c20:	73 83       	std	Z+3, r23	; 0x03
     c22:	62 83       	std	Z+2, r22	; 0x02
     c24:	db 01       	movw	r26, r22
     c26:	13 96       	adiw	r26, 0x03	; 3
     c28:	1c 92       	st	X, r1
     c2a:	1e 92       	st	-X, r1
     c2c:	12 97       	sbiw	r26, 0x02	; 2
     c2e:	84 81       	ldd	r24, Z+4	; 0x04
     c30:	8f 5f       	subi	r24, 0xFF	; 255
     c32:	84 83       	std	Z+4, r24	; 0x04
     c34:	9f bf       	out	0x3f, r25	; 63
     c36:	0f 90       	pop	r0
     c38:	df 91       	pop	r29
     c3a:	cf 91       	pop	r28
     c3c:	08 95       	ret

00000c3e <qmm_queue_remove>:
     c3e:	ab 01       	movw	r20, r22
     c40:	60 e0       	ldi	r22, 0x00	; 0
     c42:	4d cf       	rjmp	.-358    	; 0xade <queue_read_or_remove>
     c44:	08 95       	ret

00000c46 <__portable_avr_delay_cycles>:
     c46:	04 c0       	rjmp	.+8      	; 0xc50 <__portable_avr_delay_cycles+0xa>
     c48:	61 50       	subi	r22, 0x01	; 1
     c4a:	71 09       	sbc	r23, r1
     c4c:	81 09       	sbc	r24, r1
     c4e:	91 09       	sbc	r25, r1
     c50:	61 15       	cp	r22, r1
     c52:	71 05       	cpc	r23, r1
     c54:	81 05       	cpc	r24, r1
     c56:	91 05       	cpc	r25, r1
     c58:	b9 f7       	brne	.-18     	; 0xc48 <__portable_avr_delay_cycles+0x2>
     c5a:	08 95       	ret

00000c5c <switch_pll_on>:
     c5c:	0f 93       	push	r16
     c5e:	1f 93       	push	r17
     c60:	cf 93       	push	r28
     c62:	80 91 41 01 	lds	r24, 0x0141	; 0x800141 <__TEXT_REGION_LENGTH__+0x700141>
     c66:	8f 71       	andi	r24, 0x1F	; 31
     c68:	88 30       	cpi	r24, 0x08	; 8
     c6a:	a1 f4       	brne	.+40     	; 0xc94 <switch_pll_on+0x38>
     c6c:	81 e0       	ldi	r24, 0x01	; 1
     c6e:	80 93 4f 01 	sts	0x014F, r24	; 0x80014f <__TEXT_REGION_LENGTH__+0x70014f>
     c72:	89 e0       	ldi	r24, 0x09	; 9
     c74:	80 93 42 01 	sts	0x0142, r24	; 0x800142 <__TEXT_REGION_LENGTH__+0x700142>
     c78:	c3 e0       	ldi	r28, 0x03	; 3
     c7a:	0f e4       	ldi	r16, 0x4F	; 79
     c7c:	11 e0       	ldi	r17, 0x01	; 1
     c7e:	f8 01       	movw	r30, r16
     c80:	80 81       	ld	r24, Z
     c82:	80 fd       	sbrc	r24, 0
     c84:	07 c0       	rjmp	.+14     	; 0xc94 <switch_pll_on+0x38>
     c86:	63 e9       	ldi	r22, 0x93	; 147
     c88:	70 e0       	ldi	r23, 0x00	; 0
     c8a:	80 e0       	ldi	r24, 0x00	; 0
     c8c:	90 e0       	ldi	r25, 0x00	; 0
     c8e:	db df       	rcall	.-74     	; 0xc46 <__portable_avr_delay_cycles>
     c90:	c1 50       	subi	r28, 0x01	; 1
     c92:	a9 f7       	brne	.-22     	; 0xc7e <switch_pll_on+0x22>
     c94:	cf 91       	pop	r28
     c96:	1f 91       	pop	r17
     c98:	0f 91       	pop	r16
     c9a:	08 95       	ret

00000c9c <set_trx_state>:
     c9c:	1f 93       	push	r17
     c9e:	cf 93       	push	r28
     ca0:	df 93       	push	r29
     ca2:	1f 92       	push	r1
     ca4:	cd b7       	in	r28, 0x3d	; 61
     ca6:	de b7       	in	r29, 0x3e	; 62
     ca8:	18 2f       	mov	r17, r24
     caa:	80 91 6b 05 	lds	r24, 0x056B	; 0x80056b <tal_trx_status>
     cae:	8f 30       	cpi	r24, 0x0F	; 15
     cb0:	51 f5       	brne	.+84     	; 0xd06 <set_trx_state+0x6a>
     cb2:	1f 30       	cpi	r17, 0x0F	; 15
     cb4:	09 f4       	brne	.+2      	; 0xcb8 <set_trx_state+0x1c>
     cb6:	38 c1       	rjmp	.+624    	; 0xf28 <set_trx_state+0x28c>
     cb8:	10 92 6f 05 	sts	0x056F, r1	; 0x80056f <tal_awake_end_flag>
     cbc:	83 e8       	ldi	r24, 0x83	; 131
     cbe:	9a e0       	ldi	r25, 0x0A	; 10
     cc0:	e1 d2       	rcall	.+1474   	; 0x1284 <pal_trx_irq_init_awake>
     cc2:	8f b7       	in	r24, 0x3f	; 63
     cc4:	89 83       	std	Y+1, r24	; 0x01
     cc6:	f8 94       	cli
     cc8:	99 81       	ldd	r25, Y+1	; 0x01
     cca:	78 94       	sei
     ccc:	e9 e3       	ldi	r30, 0x39	; 57
     cce:	f1 e0       	ldi	r31, 0x01	; 1
     cd0:	80 81       	ld	r24, Z
     cd2:	8d 7f       	andi	r24, 0xFD	; 253
     cd4:	80 83       	st	Z, r24
     cd6:	80 91 6f 05 	lds	r24, 0x056F	; 0x80056f <tal_awake_end_flag>
     cda:	88 23       	and	r24, r24
     cdc:	e1 f3       	breq	.-8      	; 0xcd6 <set_trx_state+0x3a>
     cde:	9f bf       	out	0x3f, r25	; 63
     ce0:	8f ef       	ldi	r24, 0xFF	; 255
     ce2:	80 93 4f 01 	sts	0x014F, r24	; 0x80014f <__TEXT_REGION_LENGTH__+0x70014f>
     ce6:	88 e4       	ldi	r24, 0x48	; 72
     ce8:	80 93 4e 01 	sts	0x014E, r24	; 0x80014e <__TEXT_REGION_LENGTH__+0x70014e>
     cec:	ed e4       	ldi	r30, 0x4D	; 77
     cee:	f1 e0       	ldi	r31, 0x01	; 1
     cf0:	80 81       	ld	r24, Z
     cf2:	84 60       	ori	r24, 0x04	; 4
     cf4:	80 83       	st	Z, r24
     cf6:	18 30       	cpi	r17, 0x08	; 8
     cf8:	11 f0       	breq	.+4      	; 0xcfe <set_trx_state+0x62>
     cfa:	13 30       	cpi	r17, 0x03	; 3
     cfc:	21 f4       	brne	.+8      	; 0xd06 <set_trx_state+0x6a>
     cfe:	88 e0       	ldi	r24, 0x08	; 8
     d00:	80 93 6b 05 	sts	0x056B, r24	; 0x80056b <tal_trx_status>
     d04:	11 c1       	rjmp	.+546    	; 0xf28 <set_trx_state+0x28c>
     d06:	81 2f       	mov	r24, r17
     d08:	90 e0       	ldi	r25, 0x00	; 0
     d0a:	fc 01       	movw	r30, r24
     d0c:	33 97       	sbiw	r30, 0x03	; 3
     d0e:	e7 31       	cpi	r30, 0x17	; 23
     d10:	f1 05       	cpc	r31, r1
     d12:	08 f0       	brcs	.+2      	; 0xd16 <set_trx_state+0x7a>
     d14:	5a c0       	rjmp	.+180    	; 0xdca <set_trx_state+0x12e>
     d16:	88 27       	eor	r24, r24
     d18:	e6 56       	subi	r30, 0x66	; 102
     d1a:	ff 4f       	sbci	r31, 0xFF	; 255
     d1c:	8f 4f       	sbci	r24, 0xFF	; 255
     d1e:	0c 94 9e 13 	jmp	0x273c	; 0x273c <__tablejump2__>
     d22:	83 e0       	ldi	r24, 0x03	; 3
     d24:	80 93 42 01 	sts	0x0142, r24	; 0x800142 <__TEXT_REGION_LENGTH__+0x700142>
     d28:	ed e4       	ldi	r30, 0x4D	; 77
     d2a:	f1 e0       	ldi	r31, 0x01	; 1
     d2c:	80 81       	ld	r24, Z
     d2e:	8b 7f       	andi	r24, 0xFB	; 251
     d30:	80 83       	st	Z, r24
     d32:	0e 94 1e 14 	call	0x283c	; 0x283c <rand>
     d36:	80 93 6d 01 	sts	0x016D, r24	; 0x80016d <__TEXT_REGION_LENGTH__+0x70016d>
     d3a:	ee e6       	ldi	r30, 0x6E	; 110
     d3c:	f1 e0       	ldi	r31, 0x01	; 1
     d3e:	80 81       	ld	r24, Z
     d40:	97 70       	andi	r25, 0x07	; 7
     d42:	88 7f       	andi	r24, 0xF8	; 248
     d44:	89 2b       	or	r24, r25
     d46:	80 83       	st	Z, r24
     d48:	8f ef       	ldi	r24, 0xFF	; 255
     d4a:	80 93 4f 01 	sts	0x014F, r24	; 0x80014f <__TEXT_REGION_LENGTH__+0x70014f>
     d4e:	80 e8       	ldi	r24, 0x80	; 128
     d50:	80 93 4e 01 	sts	0x014E, r24	; 0x80014e <__TEXT_REGION_LENGTH__+0x70014e>
     d54:	62 e0       	ldi	r22, 0x02	; 2
     d56:	70 e0       	ldi	r23, 0x00	; 0
     d58:	80 e0       	ldi	r24, 0x00	; 0
     d5a:	90 e0       	ldi	r25, 0x00	; 0
     d5c:	74 df       	rcall	.-280    	; 0xc46 <__portable_avr_delay_cycles>
     d5e:	e9 e3       	ldi	r30, 0x39	; 57
     d60:	f1 e0       	ldi	r31, 0x01	; 1
     d62:	80 81       	ld	r24, Z
     d64:	82 60       	ori	r24, 0x02	; 2
     d66:	80 83       	st	Z, r24
     d68:	6f e2       	ldi	r22, 0x2F	; 47
     d6a:	70 e0       	ldi	r23, 0x00	; 0
     d6c:	80 e0       	ldi	r24, 0x00	; 0
     d6e:	90 e0       	ldi	r25, 0x00	; 0
     d70:	6a df       	rcall	.-300    	; 0xc46 <__portable_avr_delay_cycles>
     d72:	8f e0       	ldi	r24, 0x0F	; 15
     d74:	80 93 6b 05 	sts	0x056B, r24	; 0x80056b <tal_trx_status>
     d78:	d7 c0       	rjmp	.+430    	; 0xf28 <set_trx_state+0x28c>
     d7a:	80 91 6b 05 	lds	r24, 0x056B	; 0x80056b <tal_trx_status>
     d7e:	88 30       	cpi	r24, 0x08	; 8
     d80:	21 f1       	breq	.+72     	; 0xdca <set_trx_state+0x12e>
     d82:	88 e0       	ldi	r24, 0x08	; 8
     d84:	80 93 42 01 	sts	0x0142, r24	; 0x800142 <__TEXT_REGION_LENGTH__+0x700142>
     d88:	62 e0       	ldi	r22, 0x02	; 2
     d8a:	70 e0       	ldi	r23, 0x00	; 0
     d8c:	80 e0       	ldi	r24, 0x00	; 0
     d8e:	90 e0       	ldi	r25, 0x00	; 0
     d90:	5a df       	rcall	.-332    	; 0xc46 <__portable_avr_delay_cycles>
     d92:	1b c0       	rjmp	.+54     	; 0xdca <set_trx_state+0x12e>
     d94:	80 91 6b 05 	lds	r24, 0x056B	; 0x80056b <tal_trx_status>
     d98:	88 30       	cpi	r24, 0x08	; 8
     d9a:	b9 f0       	breq	.+46     	; 0xdca <set_trx_state+0x12e>
     d9c:	83 e0       	ldi	r24, 0x03	; 3
     d9e:	80 93 42 01 	sts	0x0142, r24	; 0x800142 <__TEXT_REGION_LENGTH__+0x700142>
     da2:	62 e0       	ldi	r22, 0x02	; 2
     da4:	70 e0       	ldi	r23, 0x00	; 0
     da6:	80 e0       	ldi	r24, 0x00	; 0
     da8:	90 e0       	ldi	r25, 0x00	; 0
     daa:	4d df       	rcall	.-358    	; 0xc46 <__portable_avr_delay_cycles>
     dac:	0e c0       	rjmp	.+28     	; 0xdca <set_trx_state+0x12e>
     dae:	80 91 6b 05 	lds	r24, 0x056B	; 0x80056b <tal_trx_status>
     db2:	88 30       	cpi	r24, 0x08	; 8
     db4:	49 f0       	breq	.+18     	; 0xdc8 <set_trx_state+0x12c>
     db6:	18 f4       	brcc	.+6      	; 0xdbe <set_trx_state+0x122>
     db8:	86 30       	cpi	r24, 0x06	; 6
     dba:	39 f4       	brne	.+14     	; 0xdca <set_trx_state+0x12e>
     dbc:	09 c0       	rjmp	.+18     	; 0xdd0 <set_trx_state+0x134>
     dbe:	86 31       	cpi	r24, 0x16	; 22
     dc0:	39 f0       	breq	.+14     	; 0xdd0 <set_trx_state+0x134>
     dc2:	89 31       	cpi	r24, 0x19	; 25
     dc4:	11 f4       	brne	.+4      	; 0xdca <set_trx_state+0x12e>
     dc6:	04 c0       	rjmp	.+8      	; 0xdd0 <set_trx_state+0x134>
     dc8:	49 df       	rcall	.-366    	; 0xc5c <switch_pll_on>
     dca:	e1 e4       	ldi	r30, 0x41	; 65
     dcc:	f1 e0       	ldi	r31, 0x01	; 1
     dce:	a6 c0       	rjmp	.+332    	; 0xf1c <set_trx_state+0x280>
     dd0:	89 e0       	ldi	r24, 0x09	; 9
     dd2:	80 93 42 01 	sts	0x0142, r24	; 0x800142 <__TEXT_REGION_LENGTH__+0x700142>
     dd6:	62 e0       	ldi	r22, 0x02	; 2
     dd8:	70 e0       	ldi	r23, 0x00	; 0
     dda:	80 e0       	ldi	r24, 0x00	; 0
     ddc:	90 e0       	ldi	r25, 0x00	; 0
     dde:	33 df       	rcall	.-410    	; 0xc46 <__portable_avr_delay_cycles>
     de0:	f4 cf       	rjmp	.-24     	; 0xdca <set_trx_state+0x12e>
     de2:	80 91 6b 05 	lds	r24, 0x056B	; 0x80056b <tal_trx_status>
     de6:	88 30       	cpi	r24, 0x08	; 8
     de8:	19 f0       	breq	.+6      	; 0xdf0 <set_trx_state+0x154>
     dea:	89 30       	cpi	r24, 0x09	; 9
     dec:	71 f3       	breq	.-36     	; 0xdca <set_trx_state+0x12e>
     dee:	02 c0       	rjmp	.+4      	; 0xdf4 <set_trx_state+0x158>
     df0:	35 df       	rcall	.-406    	; 0xc5c <switch_pll_on>
     df2:	eb cf       	rjmp	.-42     	; 0xdca <set_trx_state+0x12e>
     df4:	84 e0       	ldi	r24, 0x04	; 4
     df6:	80 93 42 01 	sts	0x0142, r24	; 0x800142 <__TEXT_REGION_LENGTH__+0x700142>
     dfa:	e7 cf       	rjmp	.-50     	; 0xdca <set_trx_state+0x12e>
     dfc:	80 91 6b 05 	lds	r24, 0x056B	; 0x80056b <tal_trx_status>
     e00:	89 30       	cpi	r24, 0x09	; 9
     e02:	41 f0       	breq	.+16     	; 0xe14 <set_trx_state+0x178>
     e04:	18 f4       	brcc	.+6      	; 0xe0c <set_trx_state+0x170>
     e06:	88 30       	cpi	r24, 0x08	; 8
     e08:	71 f0       	breq	.+28     	; 0xe26 <set_trx_state+0x18a>
     e0a:	df cf       	rjmp	.-66     	; 0xdca <set_trx_state+0x12e>
     e0c:	86 31       	cpi	r24, 0x16	; 22
     e0e:	11 f0       	breq	.+4      	; 0xe14 <set_trx_state+0x178>
     e10:	89 31       	cpi	r24, 0x19	; 25
     e12:	d9 f6       	brne	.-74     	; 0xdca <set_trx_state+0x12e>
     e14:	86 e0       	ldi	r24, 0x06	; 6
     e16:	80 93 42 01 	sts	0x0142, r24	; 0x800142 <__TEXT_REGION_LENGTH__+0x700142>
     e1a:	62 e0       	ldi	r22, 0x02	; 2
     e1c:	70 e0       	ldi	r23, 0x00	; 0
     e1e:	80 e0       	ldi	r24, 0x00	; 0
     e20:	90 e0       	ldi	r25, 0x00	; 0
     e22:	11 df       	rcall	.-478    	; 0xc46 <__portable_avr_delay_cycles>
     e24:	d2 cf       	rjmp	.-92     	; 0xdca <set_trx_state+0x12e>
     e26:	1a df       	rcall	.-460    	; 0xc5c <switch_pll_on>
     e28:	86 e0       	ldi	r24, 0x06	; 6
     e2a:	80 93 42 01 	sts	0x0142, r24	; 0x800142 <__TEXT_REGION_LENGTH__+0x700142>
     e2e:	62 e0       	ldi	r22, 0x02	; 2
     e30:	70 e0       	ldi	r23, 0x00	; 0
     e32:	80 e0       	ldi	r24, 0x00	; 0
     e34:	90 e0       	ldi	r25, 0x00	; 0
     e36:	07 df       	rcall	.-498    	; 0xc46 <__portable_avr_delay_cycles>
     e38:	c8 cf       	rjmp	.-112    	; 0xdca <set_trx_state+0x12e>
     e3a:	80 91 6b 05 	lds	r24, 0x056B	; 0x80056b <tal_trx_status>
     e3e:	88 30       	cpi	r24, 0x08	; 8
     e40:	91 f0       	breq	.+36     	; 0xe66 <set_trx_state+0x1ca>
     e42:	18 f4       	brcc	.+6      	; 0xe4a <set_trx_state+0x1ae>
     e44:	86 30       	cpi	r24, 0x06	; 6
     e46:	c9 f0       	breq	.+50     	; 0xe7a <set_trx_state+0x1de>
     e48:	c0 cf       	rjmp	.-128    	; 0xdca <set_trx_state+0x12e>
     e4a:	89 30       	cpi	r24, 0x09	; 9
     e4c:	19 f0       	breq	.+6      	; 0xe54 <set_trx_state+0x1b8>
     e4e:	89 31       	cpi	r24, 0x19	; 25
     e50:	09 f0       	breq	.+2      	; 0xe54 <set_trx_state+0x1b8>
     e52:	bb cf       	rjmp	.-138    	; 0xdca <set_trx_state+0x12e>
     e54:	86 e1       	ldi	r24, 0x16	; 22
     e56:	80 93 42 01 	sts	0x0142, r24	; 0x800142 <__TEXT_REGION_LENGTH__+0x700142>
     e5a:	62 e0       	ldi	r22, 0x02	; 2
     e5c:	70 e0       	ldi	r23, 0x00	; 0
     e5e:	80 e0       	ldi	r24, 0x00	; 0
     e60:	90 e0       	ldi	r25, 0x00	; 0
     e62:	f1 de       	rcall	.-542    	; 0xc46 <__portable_avr_delay_cycles>
     e64:	b2 cf       	rjmp	.-156    	; 0xdca <set_trx_state+0x12e>
     e66:	fa de       	rcall	.-524    	; 0xc5c <switch_pll_on>
     e68:	86 e1       	ldi	r24, 0x16	; 22
     e6a:	80 93 42 01 	sts	0x0142, r24	; 0x800142 <__TEXT_REGION_LENGTH__+0x700142>
     e6e:	62 e0       	ldi	r22, 0x02	; 2
     e70:	70 e0       	ldi	r23, 0x00	; 0
     e72:	80 e0       	ldi	r24, 0x00	; 0
     e74:	90 e0       	ldi	r25, 0x00	; 0
     e76:	e7 de       	rcall	.-562    	; 0xc46 <__portable_avr_delay_cycles>
     e78:	a8 cf       	rjmp	.-176    	; 0xdca <set_trx_state+0x12e>
     e7a:	89 e0       	ldi	r24, 0x09	; 9
     e7c:	80 93 42 01 	sts	0x0142, r24	; 0x800142 <__TEXT_REGION_LENGTH__+0x700142>
     e80:	62 e0       	ldi	r22, 0x02	; 2
     e82:	70 e0       	ldi	r23, 0x00	; 0
     e84:	80 e0       	ldi	r24, 0x00	; 0
     e86:	90 e0       	ldi	r25, 0x00	; 0
     e88:	de de       	rcall	.-580    	; 0xc46 <__portable_avr_delay_cycles>
     e8a:	80 91 41 01 	lds	r24, 0x0141	; 0x800141 <__TEXT_REGION_LENGTH__+0x700141>
     e8e:	8f 71       	andi	r24, 0x1F	; 31
     e90:	80 93 6b 05 	sts	0x056B, r24	; 0x80056b <tal_trx_status>
     e94:	89 30       	cpi	r24, 0x09	; 9
     e96:	09 f0       	breq	.+2      	; 0xe9a <set_trx_state+0x1fe>
     e98:	47 c0       	rjmp	.+142    	; 0xf28 <set_trx_state+0x28c>
     e9a:	86 e1       	ldi	r24, 0x16	; 22
     e9c:	80 93 42 01 	sts	0x0142, r24	; 0x800142 <__TEXT_REGION_LENGTH__+0x700142>
     ea0:	62 e0       	ldi	r22, 0x02	; 2
     ea2:	70 e0       	ldi	r23, 0x00	; 0
     ea4:	80 e0       	ldi	r24, 0x00	; 0
     ea6:	90 e0       	ldi	r25, 0x00	; 0
     ea8:	ce de       	rcall	.-612    	; 0xc46 <__portable_avr_delay_cycles>
     eaa:	8f cf       	rjmp	.-226    	; 0xdca <set_trx_state+0x12e>
     eac:	80 91 6b 05 	lds	r24, 0x056B	; 0x80056b <tal_trx_status>
     eb0:	88 30       	cpi	r24, 0x08	; 8
     eb2:	51 f1       	breq	.+84     	; 0xf08 <set_trx_state+0x26c>
     eb4:	18 f4       	brcc	.+6      	; 0xebc <set_trx_state+0x220>
     eb6:	86 30       	cpi	r24, 0x06	; 6
     eb8:	79 f0       	breq	.+30     	; 0xed8 <set_trx_state+0x23c>
     eba:	87 cf       	rjmp	.-242    	; 0xdca <set_trx_state+0x12e>
     ebc:	89 30       	cpi	r24, 0x09	; 9
     ebe:	19 f0       	breq	.+6      	; 0xec6 <set_trx_state+0x22a>
     ec0:	86 31       	cpi	r24, 0x16	; 22
     ec2:	51 f0       	breq	.+20     	; 0xed8 <set_trx_state+0x23c>
     ec4:	82 cf       	rjmp	.-252    	; 0xdca <set_trx_state+0x12e>
     ec6:	89 e1       	ldi	r24, 0x19	; 25
     ec8:	80 93 42 01 	sts	0x0142, r24	; 0x800142 <__TEXT_REGION_LENGTH__+0x700142>
     ecc:	62 e0       	ldi	r22, 0x02	; 2
     ece:	70 e0       	ldi	r23, 0x00	; 0
     ed0:	80 e0       	ldi	r24, 0x00	; 0
     ed2:	90 e0       	ldi	r25, 0x00	; 0
     ed4:	b8 de       	rcall	.-656    	; 0xc46 <__portable_avr_delay_cycles>
     ed6:	79 cf       	rjmp	.-270    	; 0xdca <set_trx_state+0x12e>
     ed8:	89 e0       	ldi	r24, 0x09	; 9
     eda:	80 93 42 01 	sts	0x0142, r24	; 0x800142 <__TEXT_REGION_LENGTH__+0x700142>
     ede:	62 e0       	ldi	r22, 0x02	; 2
     ee0:	70 e0       	ldi	r23, 0x00	; 0
     ee2:	80 e0       	ldi	r24, 0x00	; 0
     ee4:	90 e0       	ldi	r25, 0x00	; 0
     ee6:	af de       	rcall	.-674    	; 0xc46 <__portable_avr_delay_cycles>
     ee8:	80 91 41 01 	lds	r24, 0x0141	; 0x800141 <__TEXT_REGION_LENGTH__+0x700141>
     eec:	8f 71       	andi	r24, 0x1F	; 31
     eee:	80 93 6b 05 	sts	0x056B, r24	; 0x80056b <tal_trx_status>
     ef2:	89 30       	cpi	r24, 0x09	; 9
     ef4:	c9 f4       	brne	.+50     	; 0xf28 <set_trx_state+0x28c>
     ef6:	89 e1       	ldi	r24, 0x19	; 25
     ef8:	80 93 42 01 	sts	0x0142, r24	; 0x800142 <__TEXT_REGION_LENGTH__+0x700142>
     efc:	62 e0       	ldi	r22, 0x02	; 2
     efe:	70 e0       	ldi	r23, 0x00	; 0
     f00:	80 e0       	ldi	r24, 0x00	; 0
     f02:	90 e0       	ldi	r25, 0x00	; 0
     f04:	a0 de       	rcall	.-704    	; 0xc46 <__portable_avr_delay_cycles>
     f06:	61 cf       	rjmp	.-318    	; 0xdca <set_trx_state+0x12e>
     f08:	a9 de       	rcall	.-686    	; 0xc5c <switch_pll_on>
     f0a:	89 e1       	ldi	r24, 0x19	; 25
     f0c:	80 93 42 01 	sts	0x0142, r24	; 0x800142 <__TEXT_REGION_LENGTH__+0x700142>
     f10:	62 e0       	ldi	r22, 0x02	; 2
     f12:	70 e0       	ldi	r23, 0x00	; 0
     f14:	80 e0       	ldi	r24, 0x00	; 0
     f16:	90 e0       	ldi	r25, 0x00	; 0
     f18:	96 de       	rcall	.-724    	; 0xc46 <__portable_avr_delay_cycles>
     f1a:	57 cf       	rjmp	.-338    	; 0xdca <set_trx_state+0x12e>
     f1c:	80 81       	ld	r24, Z
     f1e:	8f 71       	andi	r24, 0x1F	; 31
     f20:	80 93 6b 05 	sts	0x056B, r24	; 0x80056b <tal_trx_status>
     f24:	8f 31       	cpi	r24, 0x1F	; 31
     f26:	d1 f3       	breq	.-12     	; 0xf1c <set_trx_state+0x280>
     f28:	0f 90       	pop	r0
     f2a:	df 91       	pop	r29
     f2c:	cf 91       	pop	r28
     f2e:	1f 91       	pop	r17
     f30:	08 95       	ret

00000f32 <tal_task>:
     f32:	cf 93       	push	r28
     f34:	df 93       	push	r29
     f36:	80 91 44 05 	lds	r24, 0x0544	; 0x800544 <tal_rx_on_required>
     f3a:	88 23       	and	r24, r24
     f3c:	19 f1       	breq	.+70     	; 0xf84 <tal_task+0x52>
     f3e:	80 91 70 05 	lds	r24, 0x0570	; 0x800570 <tal_state>
     f42:	81 11       	cpse	r24, r1
     f44:	1f c0       	rjmp	.+62     	; 0xf84 <tal_task+0x52>
     f46:	80 91 72 04 	lds	r24, 0x0472	; 0x800472 <tal_rx_buffer>
     f4a:	90 91 73 04 	lds	r25, 0x0473	; 0x800473 <tal_rx_buffer+0x1>
     f4e:	89 2b       	or	r24, r25
     f50:	41 f4       	brne	.+16     	; 0xf62 <tal_task+0x30>
     f52:	8b e8       	ldi	r24, 0x8B	; 139
     f54:	b7 dd       	rcall	.-1170   	; 0xac4 <bmm_buffer_alloc>
     f56:	90 93 73 04 	sts	0x0473, r25	; 0x800473 <tal_rx_buffer+0x1>
     f5a:	80 93 72 04 	sts	0x0472, r24	; 0x800472 <tal_rx_buffer>
     f5e:	89 2b       	or	r24, r25
     f60:	89 f0       	breq	.+34     	; 0xf84 <tal_task+0x52>
     f62:	10 92 44 05 	sts	0x0544, r1	; 0x800544 <tal_rx_on_required>
     f66:	cc e4       	ldi	r28, 0x4C	; 76
     f68:	d1 e0       	ldi	r29, 0x01	; 1
     f6a:	88 81       	ld	r24, Y
     f6c:	8f 77       	andi	r24, 0x7F	; 127
     f6e:	88 83       	st	Y, r24
     f70:	63 e0       	ldi	r22, 0x03	; 3
     f72:	70 e0       	ldi	r23, 0x00	; 0
     f74:	80 e0       	ldi	r24, 0x00	; 0
     f76:	90 e0       	ldi	r25, 0x00	; 0
     f78:	66 de       	rcall	.-820    	; 0xc46 <__portable_avr_delay_cycles>
     f7a:	88 81       	ld	r24, Y
     f7c:	80 68       	ori	r24, 0x80	; 128
     f7e:	88 83       	st	Y, r24
     f80:	86 e1       	ldi	r24, 0x16	; 22
     f82:	8c de       	rcall	.-744    	; 0xc9c <set_trx_state>
     f84:	80 91 49 05 	lds	r24, 0x0549	; 0x800549 <tal_incoming_frame_queue+0x4>
     f88:	88 23       	and	r24, r24
     f8a:	41 f0       	breq	.+16     	; 0xf9c <tal_task+0x6a>
     f8c:	60 e0       	ldi	r22, 0x00	; 0
     f8e:	70 e0       	ldi	r23, 0x00	; 0
     f90:	85 e4       	ldi	r24, 0x45	; 69
     f92:	95 e0       	ldi	r25, 0x05	; 5
     f94:	54 de       	rcall	.-856    	; 0xc3e <qmm_queue_remove>
     f96:	00 97       	sbiw	r24, 0x00	; 0
     f98:	09 f0       	breq	.+2      	; 0xf9c <tal_task+0x6a>
     f9a:	24 d5       	rcall	.+2632   	; 0x19e4 <process_incoming_frame>
     f9c:	80 91 70 05 	lds	r24, 0x0570	; 0x800570 <tal_state>
     fa0:	82 30       	cpi	r24, 0x02	; 2
     fa2:	09 f4       	brne	.+2      	; 0xfa6 <tal_task+0x74>
     fa4:	85 d5       	rcall	.+2826   	; 0x1ab0 <tx_done_handling>
     fa6:	df 91       	pop	r29
     fa8:	cf 91       	pop	r28
     faa:	08 95       	ret

00000fac <__portable_avr_delay_cycles>:
     fac:	04 c0       	rjmp	.+8      	; 0xfb6 <__portable_avr_delay_cycles+0xa>
     fae:	61 50       	subi	r22, 0x01	; 1
     fb0:	71 09       	sbc	r23, r1
     fb2:	81 09       	sbc	r24, r1
     fb4:	91 09       	sbc	r25, r1
     fb6:	61 15       	cp	r22, r1
     fb8:	71 05       	cpc	r23, r1
     fba:	81 05       	cpc	r24, r1
     fbc:	91 05       	cpc	r25, r1
     fbe:	b9 f7       	brne	.-18     	; 0xfae <__portable_avr_delay_cycles+0x2>
     fc0:	08 95       	ret

00000fc2 <tal_generate_rand_seed>:
     fc2:	ff 92       	push	r15
     fc4:	0f 93       	push	r16
     fc6:	1f 93       	push	r17
     fc8:	cf 93       	push	r28
     fca:	df 93       	push	r29
     fcc:	86 e0       	ldi	r24, 0x06	; 6
     fce:	66 de       	rcall	.-820    	; 0xc9c <set_trx_state>
     fd0:	86 30       	cpi	r24, 0x06	; 6
     fd2:	e1 f7       	brne	.-8      	; 0xfcc <tal_generate_rand_seed+0xa>
     fd4:	e5 e5       	ldi	r30, 0x55	; 85
     fd6:	f1 e0       	ldi	r31, 0x01	; 1
     fd8:	80 81       	ld	r24, Z
     fda:	8f 77       	andi	r24, 0x7F	; 127
     fdc:	80 83       	st	Z, r24
     fde:	10 92 4e 01 	sts	0x014E, r1	; 0x80014e <__TEXT_REGION_LENGTH__+0x70014e>
     fe2:	68 94       	set
     fe4:	ff 24       	eor	r15, r15
     fe6:	f3 f8       	bld	r15, 3
     fe8:	c0 e0       	ldi	r28, 0x00	; 0
     fea:	d0 e0       	ldi	r29, 0x00	; 0
     fec:	06 e4       	ldi	r16, 0x46	; 70
     fee:	11 e0       	ldi	r17, 0x01	; 1
     ff0:	f8 01       	movw	r30, r16
     ff2:	90 81       	ld	r25, Z
     ff4:	cc 0f       	add	r28, r28
     ff6:	dd 1f       	adc	r29, r29
     ff8:	cc 0f       	add	r28, r28
     ffa:	dd 1f       	adc	r29, r29
     ffc:	90 76       	andi	r25, 0x60	; 96
     ffe:	29 2f       	mov	r18, r25
    1000:	30 e0       	ldi	r19, 0x00	; 0
    1002:	36 95       	lsr	r19
    1004:	27 95       	ror	r18
    1006:	32 95       	swap	r19
    1008:	22 95       	swap	r18
    100a:	2f 70       	andi	r18, 0x0F	; 15
    100c:	23 27       	eor	r18, r19
    100e:	3f 70       	andi	r19, 0x0F	; 15
    1010:	23 27       	eor	r18, r19
    1012:	c2 2b       	or	r28, r18
    1014:	d3 2b       	or	r29, r19
    1016:	62 e0       	ldi	r22, 0x02	; 2
    1018:	70 e0       	ldi	r23, 0x00	; 0
    101a:	80 e0       	ldi	r24, 0x00	; 0
    101c:	90 e0       	ldi	r25, 0x00	; 0
    101e:	c6 df       	rcall	.-116    	; 0xfac <__portable_avr_delay_cycles>
    1020:	fa 94       	dec	r15
    1022:	f1 10       	cpse	r15, r1
    1024:	e5 cf       	rjmp	.-54     	; 0xff0 <tal_generate_rand_seed+0x2e>
    1026:	83 e0       	ldi	r24, 0x03	; 3
    1028:	39 de       	rcall	.-910    	; 0xc9c <set_trx_state>
    102a:	8f ef       	ldi	r24, 0xFF	; 255
    102c:	80 93 4f 01 	sts	0x014F, r24	; 0x80014f <__TEXT_REGION_LENGTH__+0x70014f>
    1030:	88 e4       	ldi	r24, 0x48	; 72
    1032:	80 93 4e 01 	sts	0x014E, r24	; 0x80014e <__TEXT_REGION_LENGTH__+0x70014e>
    1036:	ce 01       	movw	r24, r28
    1038:	0e 94 21 14 	call	0x2842	; 0x2842 <srand>
    103c:	df 91       	pop	r29
    103e:	cf 91       	pop	r28
    1040:	1f 91       	pop	r17
    1042:	0f 91       	pop	r16
    1044:	ff 90       	pop	r15
    1046:	08 95       	ret

00001048 <internal_tal_reset>:
    1048:	ff 92       	push	r15
    104a:	0f 93       	push	r16
    104c:	1f 93       	push	r17
    104e:	cf 93       	push	r28
    1050:	df 93       	push	r29
    1052:	f8 2e       	mov	r15, r24
    1054:	c9 e3       	ldi	r28, 0x39	; 57
    1056:	d1 e0       	ldi	r29, 0x01	; 1
    1058:	88 81       	ld	r24, Y
    105a:	8d 7f       	andi	r24, 0xFD	; 253
    105c:	88 83       	st	Y, r24
    105e:	61 e4       	ldi	r22, 0x41	; 65
    1060:	71 e0       	ldi	r23, 0x01	; 1
    1062:	80 e0       	ldi	r24, 0x00	; 0
    1064:	90 e0       	ldi	r25, 0x00	; 0
    1066:	a2 df       	rcall	.-188    	; 0xfac <__portable_avr_delay_cycles>
    1068:	88 81       	ld	r24, Y
    106a:	8e 7f       	andi	r24, 0xFE	; 254
    106c:	88 83       	st	Y, r24
    106e:	62 e0       	ldi	r22, 0x02	; 2
    1070:	70 e0       	ldi	r23, 0x00	; 0
    1072:	80 e0       	ldi	r24, 0x00	; 0
    1074:	90 e0       	ldi	r25, 0x00	; 0
    1076:	9a df       	rcall	.-204    	; 0xfac <__portable_avr_delay_cycles>
    1078:	88 81       	ld	r24, Y
    107a:	81 60       	ori	r24, 0x01	; 1
    107c:	88 83       	st	Y, r24
    107e:	66 e8       	ldi	r22, 0x86	; 134
    1080:	70 e0       	ldi	r23, 0x00	; 0
    1082:	80 e0       	ldi	r24, 0x00	; 0
    1084:	90 e0       	ldi	r25, 0x00	; 0
    1086:	92 df       	rcall	.-220    	; 0xfac <__portable_avr_delay_cycles>
    1088:	80 91 41 01 	lds	r24, 0x0141	; 0x800141 <__TEXT_REGION_LENGTH__+0x700141>
    108c:	8f 71       	andi	r24, 0x1F	; 31
    108e:	ca e0       	ldi	r28, 0x0A	; 10
    1090:	01 e4       	ldi	r16, 0x41	; 65
    1092:	11 e0       	ldi	r17, 0x01	; 1
    1094:	0a c0       	rjmp	.+20     	; 0x10aa <internal_tal_reset+0x62>
    1096:	66 e8       	ldi	r22, 0x86	; 134
    1098:	70 e0       	ldi	r23, 0x00	; 0
    109a:	80 e0       	ldi	r24, 0x00	; 0
    109c:	90 e0       	ldi	r25, 0x00	; 0
    109e:	86 df       	rcall	.-244    	; 0xfac <__portable_avr_delay_cycles>
    10a0:	f8 01       	movw	r30, r16
    10a2:	80 81       	ld	r24, Z
    10a4:	8f 71       	andi	r24, 0x1F	; 31
    10a6:	c1 50       	subi	r28, 0x01	; 1
    10a8:	c9 f1       	breq	.+114    	; 0x111c <internal_tal_reset+0xd4>
    10aa:	88 30       	cpi	r24, 0x08	; 8
    10ac:	a1 f7       	brne	.-24     	; 0x1096 <internal_tal_reset+0x4e>
    10ae:	80 93 6b 05 	sts	0x056B, r24	; 0x80056b <tal_trx_status>
    10b2:	87 df       	rcall	.-242    	; 0xfc2 <tal_generate_rand_seed>
    10b4:	0e 94 1e 14 	call	0x283c	; 0x283c <rand>
    10b8:	80 93 6d 01 	sts	0x016D, r24	; 0x80016d <__TEXT_REGION_LENGTH__+0x70016d>
    10bc:	ee e6       	ldi	r30, 0x6E	; 110
    10be:	f1 e0       	ldi	r31, 0x01	; 1
    10c0:	80 81       	ld	r24, Z
    10c2:	97 70       	andi	r25, 0x07	; 7
    10c4:	88 7f       	andi	r24, 0xF8	; 248
    10c6:	89 2b       	or	r24, r25
    10c8:	80 83       	st	Z, r24
    10ca:	80 81       	ld	r24, Z
    10cc:	80 62       	ori	r24, 0x20	; 32
    10ce:	80 83       	st	Z, r24
    10d0:	ec e4       	ldi	r30, 0x4C	; 76
    10d2:	f1 e0       	ldi	r31, 0x01	; 1
    10d4:	80 81       	ld	r24, Z
    10d6:	80 68       	ori	r24, 0x80	; 128
    10d8:	80 83       	st	Z, r24
    10da:	88 e4       	ldi	r24, 0x48	; 72
    10dc:	80 93 4e 01 	sts	0x014E, r24	; 0x80014e <__TEXT_REGION_LENGTH__+0x70014e>
    10e0:	8f ef       	ldi	r24, 0xFF	; 255
    10e2:	80 93 56 01 	sts	0x0156, r24	; 0x800156 <__TEXT_REGION_LENGTH__+0x700156>
    10e6:	ed e4       	ldi	r30, 0x4D	; 77
    10e8:	f1 e0       	ldi	r31, 0x01	; 1
    10ea:	80 81       	ld	r24, Z
    10ec:	8c 7f       	andi	r24, 0xFC	; 252
    10ee:	82 60       	ori	r24, 0x02	; 2
    10f0:	80 83       	st	Z, r24
    10f2:	aa e4       	ldi	r26, 0x4A	; 74
    10f4:	b1 e0       	ldi	r27, 0x01	; 1
    10f6:	8c 91       	ld	r24, X
    10f8:	80 7f       	andi	r24, 0xF0	; 240
    10fa:	83 60       	ori	r24, 0x03	; 3
    10fc:	8c 93       	st	X, r24
    10fe:	80 81       	ld	r24, Z
    1100:	88 60       	ori	r24, 0x08	; 8
    1102:	80 83       	st	Z, r24
    1104:	80 81       	ld	r24, Z
    1106:	84 60       	ori	r24, 0x04	; 4
    1108:	80 83       	st	Z, r24
    110a:	f1 10       	cpse	r15, r1
    110c:	30 d2       	rcall	.+1120   	; 0x156e <init_tal_pib>
    110e:	7d d2       	rcall	.+1274   	; 0x160a <write_all_tal_pib_to_trx>
    1110:	10 92 70 05 	sts	0x0570, r1	; 0x800570 <tal_state>
    1114:	10 92 44 05 	sts	0x0544, r1	; 0x800544 <tal_rx_on_required>
    1118:	80 e0       	ldi	r24, 0x00	; 0
    111a:	01 c0       	rjmp	.+2      	; 0x111e <internal_tal_reset+0xd6>
    111c:	85 e8       	ldi	r24, 0x85	; 133
    111e:	df 91       	pop	r29
    1120:	cf 91       	pop	r28
    1122:	1f 91       	pop	r17
    1124:	0f 91       	pop	r16
    1126:	ff 90       	pop	r15
    1128:	08 95       	ret

0000112a <tal_init>:
    112a:	cf 92       	push	r12
    112c:	df 92       	push	r13
    112e:	ef 92       	push	r14
    1130:	ff 92       	push	r15
    1132:	0f 93       	push	r16
    1134:	1f 93       	push	r17
    1136:	cf 93       	push	r28
    1138:	df 93       	push	r29
    113a:	14 be       	out	0x34, r1	; 52
    113c:	80 e1       	ldi	r24, 0x10	; 16
    113e:	80 93 35 01 	sts	0x0135, r24	; 0x800135 <__TEXT_REGION_LENGTH__+0x700135>
    1142:	80 93 34 01 	sts	0x0134, r24	; 0x800134 <__TEXT_REGION_LENGTH__+0x700134>
    1146:	80 93 33 01 	sts	0x0133, r24	; 0x800133 <__TEXT_REGION_LENGTH__+0x700133>
    114a:	80 93 32 01 	sts	0x0132, r24	; 0x800132 <__TEXT_REGION_LENGTH__+0x700132>
    114e:	92 dc       	rcall	.-1756   	; 0xa74 <pal_init>
    1150:	81 11       	cpse	r24, r1
    1152:	6d c0       	rjmp	.+218    	; 0x122e <tal_init+0x104>
    1154:	60 e4       	ldi	r22, 0x40	; 64
    1156:	81 e0       	ldi	r24, 0x01	; 1
    1158:	ba da       	rcall	.-2700   	; 0x6ce <sysclk_enable_module>
    115a:	c9 e3       	ldi	r28, 0x39	; 57
    115c:	d1 e0       	ldi	r29, 0x01	; 1
    115e:	88 81       	ld	r24, Y
    1160:	81 60       	ori	r24, 0x01	; 1
    1162:	88 83       	st	Y, r24
    1164:	88 81       	ld	r24, Y
    1166:	8d 7f       	andi	r24, 0xFD	; 253
    1168:	88 83       	st	Y, r24
    116a:	6b ef       	ldi	r22, 0xFB	; 251
    116c:	71 e0       	ldi	r23, 0x01	; 1
    116e:	80 e0       	ldi	r24, 0x00	; 0
    1170:	90 e0       	ldi	r25, 0x00	; 0
    1172:	1c df       	rcall	.-456    	; 0xfac <__portable_avr_delay_cycles>
    1174:	88 81       	ld	r24, Y
    1176:	8e 7f       	andi	r24, 0xFE	; 254
    1178:	88 83       	st	Y, r24
    117a:	62 e0       	ldi	r22, 0x02	; 2
    117c:	70 e0       	ldi	r23, 0x00	; 0
    117e:	80 e0       	ldi	r24, 0x00	; 0
    1180:	90 e0       	ldi	r25, 0x00	; 0
    1182:	14 df       	rcall	.-472    	; 0xfac <__portable_avr_delay_cycles>
    1184:	88 81       	ld	r24, Y
    1186:	81 60       	ori	r24, 0x01	; 1
    1188:	88 83       	st	Y, r24
    118a:	66 e8       	ldi	r22, 0x86	; 134
    118c:	70 e0       	ldi	r23, 0x00	; 0
    118e:	80 e0       	ldi	r24, 0x00	; 0
    1190:	90 e0       	ldi	r25, 0x00	; 0
    1192:	0c df       	rcall	.-488    	; 0xfac <__portable_avr_delay_cycles>
    1194:	80 91 41 01 	lds	r24, 0x0141	; 0x800141 <__TEXT_REGION_LENGTH__+0x700141>
    1198:	8f 71       	andi	r24, 0x1F	; 31
    119a:	ca e0       	ldi	r28, 0x0A	; 10
    119c:	01 e4       	ldi	r16, 0x41	; 65
    119e:	11 e0       	ldi	r17, 0x01	; 1
    11a0:	0b c0       	rjmp	.+22     	; 0x11b8 <tal_init+0x8e>
    11a2:	66 e8       	ldi	r22, 0x86	; 134
    11a4:	70 e0       	ldi	r23, 0x00	; 0
    11a6:	80 e0       	ldi	r24, 0x00	; 0
    11a8:	90 e0       	ldi	r25, 0x00	; 0
    11aa:	00 df       	rcall	.-512    	; 0xfac <__portable_avr_delay_cycles>
    11ac:	f8 01       	movw	r30, r16
    11ae:	80 81       	ld	r24, Z
    11b0:	8f 71       	andi	r24, 0x1F	; 31
    11b2:	c1 50       	subi	r28, 0x01	; 1
    11b4:	09 f4       	brne	.+2      	; 0x11b8 <tal_init+0x8e>
    11b6:	51 c0       	rjmp	.+162    	; 0x125a <tal_init+0x130>
    11b8:	88 30       	cpi	r24, 0x08	; 8
    11ba:	99 f7       	brne	.-26     	; 0x11a2 <tal_init+0x78>
    11bc:	80 93 6b 05 	sts	0x056B, r24	; 0x80056b <tal_trx_status>
    11c0:	80 91 5c 01 	lds	r24, 0x015C	; 0x80015c <__TEXT_REGION_LENGTH__+0x70015c>
    11c4:	84 39       	cpi	r24, 0x94	; 148
    11c6:	09 f0       	breq	.+2      	; 0x11ca <tal_init+0xa0>
    11c8:	48 c0       	rjmp	.+144    	; 0x125a <tal_init+0x130>
    11ca:	35 c0       	rjmp	.+106    	; 0x1236 <tal_init+0x10c>
    11cc:	0e 94 1e 14 	call	0x283c	; 0x283c <rand>
    11d0:	f8 01       	movw	r30, r16
    11d2:	81 93       	st	Z+, r24
    11d4:	8f 01       	movw	r16, r30
    11d6:	ec 15       	cp	r30, r12
    11d8:	fd 05       	cpc	r31, r13
    11da:	c1 f7       	brne	.-16     	; 0x11cc <tal_init+0xa2>
    11dc:	f7 01       	movw	r30, r14
    11de:	20 81       	ld	r18, Z
    11e0:	31 81       	ldd	r19, Z+1	; 0x01
    11e2:	42 81       	ldd	r20, Z+2	; 0x02
    11e4:	53 81       	ldd	r21, Z+3	; 0x03
    11e6:	64 81       	ldd	r22, Z+4	; 0x04
    11e8:	75 81       	ldd	r23, Z+5	; 0x05
    11ea:	86 81       	ldd	r24, Z+6	; 0x06
    11ec:	97 81       	ldd	r25, Z+7	; 0x07
    11ee:	af ef       	ldi	r26, 0xFF	; 255
    11f0:	0e 94 bf 13 	call	0x277e	; 0x277e <__adddi3_s8>
    11f4:	ad ef       	ldi	r26, 0xFD	; 253
    11f6:	0e 94 cb 13 	call	0x2796	; 0x2796 <__cmpdi2_s8>
    11fa:	21 f0       	breq	.+8      	; 0x1204 <tal_init+0xda>
    11fc:	18 f0       	brcs	.+6      	; 0x1204 <tal_init+0xda>
    11fe:	0c e4       	ldi	r16, 0x4C	; 76
    1200:	15 e0       	ldi	r17, 0x05	; 5
    1202:	e4 cf       	rjmp	.-56     	; 0x11cc <tal_init+0xa2>
    1204:	81 e6       	ldi	r24, 0x61	; 97
    1206:	9a e0       	ldi	r25, 0x0A	; 10
    1208:	38 d0       	rcall	.+112    	; 0x127a <pal_trx_irq_init_rx_end>
    120a:	82 e7       	ldi	r24, 0x72	; 114
    120c:	9a e0       	ldi	r25, 0x0A	; 10
    120e:	30 d0       	rcall	.+96     	; 0x1270 <pal_trx_irq_init_tx_end>
    1210:	83 e8       	ldi	r24, 0x83	; 131
    1212:	9a e0       	ldi	r25, 0x0A	; 10
    1214:	37 d0       	rcall	.+110    	; 0x1284 <pal_trx_irq_init_awake>
    1216:	32 dc       	rcall	.-1948   	; 0xa7c <bmm_buffer_init>
    1218:	8b e8       	ldi	r24, 0x8B	; 139
    121a:	54 dc       	rcall	.-1880   	; 0xac4 <bmm_buffer_alloc>
    121c:	90 93 73 04 	sts	0x0473, r25	; 0x800473 <tal_rx_buffer+0x1>
    1220:	80 93 72 04 	sts	0x0472, r24	; 0x800472 <tal_rx_buffer>
    1224:	85 e4       	ldi	r24, 0x45	; 69
    1226:	95 e0       	ldi	r25, 0x05	; 5
    1228:	de dc       	rcall	.-1604   	; 0xbe6 <qmm_queue_init>
    122a:	cb d5       	rcall	.+2966   	; 0x1dc2 <tfa_init>
    122c:	17 c0       	rjmp	.+46     	; 0x125c <tal_init+0x132>
    122e:	c5 e8       	ldi	r28, 0x85	; 133
    1230:	15 c0       	rjmp	.+42     	; 0x125c <tal_init+0x132>
    1232:	c5 e8       	ldi	r28, 0x85	; 133
    1234:	13 c0       	rjmp	.+38     	; 0x125c <tal_init+0x132>
    1236:	81 e0       	ldi	r24, 0x01	; 1
    1238:	07 df       	rcall	.-498    	; 0x1048 <internal_tal_reset>
    123a:	c8 2f       	mov	r28, r24
    123c:	81 11       	cpse	r24, r1
    123e:	f9 cf       	rjmp	.-14     	; 0x1232 <tal_init+0x108>
    1240:	0f 2e       	mov	r0, r31
    1242:	fc e4       	ldi	r31, 0x4C	; 76
    1244:	ef 2e       	mov	r14, r31
    1246:	f5 e0       	ldi	r31, 0x05	; 5
    1248:	ff 2e       	mov	r15, r31
    124a:	f0 2d       	mov	r31, r0
    124c:	0f 2e       	mov	r0, r31
    124e:	f4 e5       	ldi	r31, 0x54	; 84
    1250:	cf 2e       	mov	r12, r31
    1252:	f5 e0       	ldi	r31, 0x05	; 5
    1254:	df 2e       	mov	r13, r31
    1256:	f0 2d       	mov	r31, r0
    1258:	c1 cf       	rjmp	.-126    	; 0x11dc <tal_init+0xb2>
    125a:	c5 e8       	ldi	r28, 0x85	; 133
    125c:	8c 2f       	mov	r24, r28
    125e:	df 91       	pop	r29
    1260:	cf 91       	pop	r28
    1262:	1f 91       	pop	r17
    1264:	0f 91       	pop	r16
    1266:	ff 90       	pop	r15
    1268:	ef 90       	pop	r14
    126a:	df 90       	pop	r13
    126c:	cf 90       	pop	r12
    126e:	08 95       	ret

00001270 <pal_trx_irq_init_tx_end>:
    1270:	90 93 7b 04 	sts	0x047B, r25	; 0x80047b <irq_hdl_trx_tx_end+0x1>
    1274:	80 93 7a 04 	sts	0x047A, r24	; 0x80047a <irq_hdl_trx_tx_end>
    1278:	08 95       	ret

0000127a <pal_trx_irq_init_rx_end>:
    127a:	90 93 79 04 	sts	0x0479, r25	; 0x800479 <irq_hdl_trx_rx_end+0x1>
    127e:	80 93 78 04 	sts	0x0478, r24	; 0x800478 <irq_hdl_trx_rx_end>
    1282:	08 95       	ret

00001284 <pal_trx_irq_init_awake>:
    1284:	90 93 75 04 	sts	0x0475, r25	; 0x800475 <irq_hdl_trx_awake+0x1>
    1288:	80 93 74 04 	sts	0x0474, r24	; 0x800474 <irq_hdl_trx_awake>
    128c:	08 95       	ret

0000128e <__vector_63>:
    128e:	1f 92       	push	r1
    1290:	0f 92       	push	r0
    1292:	0f b6       	in	r0, 0x3f	; 63
    1294:	0f 92       	push	r0
    1296:	11 24       	eor	r1, r1
    1298:	0b b6       	in	r0, 0x3b	; 59
    129a:	0f 92       	push	r0
    129c:	2f 93       	push	r18
    129e:	3f 93       	push	r19
    12a0:	4f 93       	push	r20
    12a2:	5f 93       	push	r21
    12a4:	6f 93       	push	r22
    12a6:	7f 93       	push	r23
    12a8:	8f 93       	push	r24
    12aa:	9f 93       	push	r25
    12ac:	af 93       	push	r26
    12ae:	bf 93       	push	r27
    12b0:	ef 93       	push	r30
    12b2:	ff 93       	push	r31
    12b4:	e0 91 7a 04 	lds	r30, 0x047A	; 0x80047a <irq_hdl_trx_tx_end>
    12b8:	f0 91 7b 04 	lds	r31, 0x047B	; 0x80047b <irq_hdl_trx_tx_end+0x1>
    12bc:	19 95       	eicall
    12be:	ff 91       	pop	r31
    12c0:	ef 91       	pop	r30
    12c2:	bf 91       	pop	r27
    12c4:	af 91       	pop	r26
    12c6:	9f 91       	pop	r25
    12c8:	8f 91       	pop	r24
    12ca:	7f 91       	pop	r23
    12cc:	6f 91       	pop	r22
    12ce:	5f 91       	pop	r21
    12d0:	4f 91       	pop	r20
    12d2:	3f 91       	pop	r19
    12d4:	2f 91       	pop	r18
    12d6:	0f 90       	pop	r0
    12d8:	0b be       	out	0x3b, r0	; 59
    12da:	0f 90       	pop	r0
    12dc:	0f be       	out	0x3f, r0	; 63
    12de:	0f 90       	pop	r0
    12e0:	1f 90       	pop	r1
    12e2:	18 95       	reti

000012e4 <__vector_60>:
    12e4:	1f 92       	push	r1
    12e6:	0f 92       	push	r0
    12e8:	0f b6       	in	r0, 0x3f	; 63
    12ea:	0f 92       	push	r0
    12ec:	11 24       	eor	r1, r1
    12ee:	0b b6       	in	r0, 0x3b	; 59
    12f0:	0f 92       	push	r0
    12f2:	2f 93       	push	r18
    12f4:	3f 93       	push	r19
    12f6:	4f 93       	push	r20
    12f8:	5f 93       	push	r21
    12fa:	6f 93       	push	r22
    12fc:	7f 93       	push	r23
    12fe:	8f 93       	push	r24
    1300:	9f 93       	push	r25
    1302:	af 93       	push	r26
    1304:	bf 93       	push	r27
    1306:	ef 93       	push	r30
    1308:	ff 93       	push	r31
    130a:	e0 91 78 04 	lds	r30, 0x0478	; 0x800478 <irq_hdl_trx_rx_end>
    130e:	f0 91 79 04 	lds	r31, 0x0479	; 0x800479 <irq_hdl_trx_rx_end+0x1>
    1312:	19 95       	eicall
    1314:	ff 91       	pop	r31
    1316:	ef 91       	pop	r30
    1318:	bf 91       	pop	r27
    131a:	af 91       	pop	r26
    131c:	9f 91       	pop	r25
    131e:	8f 91       	pop	r24
    1320:	7f 91       	pop	r23
    1322:	6f 91       	pop	r22
    1324:	5f 91       	pop	r21
    1326:	4f 91       	pop	r20
    1328:	3f 91       	pop	r19
    132a:	2f 91       	pop	r18
    132c:	0f 90       	pop	r0
    132e:	0b be       	out	0x3b, r0	; 59
    1330:	0f 90       	pop	r0
    1332:	0f be       	out	0x3f, r0	; 63
    1334:	0f 90       	pop	r0
    1336:	1f 90       	pop	r1
    1338:	18 95       	reti

0000133a <__vector_61>:
    133a:	1f 92       	push	r1
    133c:	0f 92       	push	r0
    133e:	0f b6       	in	r0, 0x3f	; 63
    1340:	0f 92       	push	r0
    1342:	11 24       	eor	r1, r1
    1344:	0b b6       	in	r0, 0x3b	; 59
    1346:	0f 92       	push	r0
    1348:	2f 93       	push	r18
    134a:	3f 93       	push	r19
    134c:	4f 93       	push	r20
    134e:	5f 93       	push	r21
    1350:	6f 93       	push	r22
    1352:	7f 93       	push	r23
    1354:	8f 93       	push	r24
    1356:	9f 93       	push	r25
    1358:	af 93       	push	r26
    135a:	bf 93       	push	r27
    135c:	ef 93       	push	r30
    135e:	ff 93       	push	r31
    1360:	e0 91 76 04 	lds	r30, 0x0476	; 0x800476 <irq_hdl_trx_cca_ed>
    1364:	f0 91 77 04 	lds	r31, 0x0477	; 0x800477 <irq_hdl_trx_cca_ed+0x1>
    1368:	19 95       	eicall
    136a:	ff 91       	pop	r31
    136c:	ef 91       	pop	r30
    136e:	bf 91       	pop	r27
    1370:	af 91       	pop	r26
    1372:	9f 91       	pop	r25
    1374:	8f 91       	pop	r24
    1376:	7f 91       	pop	r23
    1378:	6f 91       	pop	r22
    137a:	5f 91       	pop	r21
    137c:	4f 91       	pop	r20
    137e:	3f 91       	pop	r19
    1380:	2f 91       	pop	r18
    1382:	0f 90       	pop	r0
    1384:	0b be       	out	0x3b, r0	; 59
    1386:	0f 90       	pop	r0
    1388:	0f be       	out	0x3f, r0	; 63
    138a:	0f 90       	pop	r0
    138c:	1f 90       	pop	r1
    138e:	18 95       	reti

00001390 <__vector_64>:
    1390:	1f 92       	push	r1
    1392:	0f 92       	push	r0
    1394:	0f b6       	in	r0, 0x3f	; 63
    1396:	0f 92       	push	r0
    1398:	11 24       	eor	r1, r1
    139a:	0b b6       	in	r0, 0x3b	; 59
    139c:	0f 92       	push	r0
    139e:	2f 93       	push	r18
    13a0:	3f 93       	push	r19
    13a2:	4f 93       	push	r20
    13a4:	5f 93       	push	r21
    13a6:	6f 93       	push	r22
    13a8:	7f 93       	push	r23
    13aa:	8f 93       	push	r24
    13ac:	9f 93       	push	r25
    13ae:	af 93       	push	r26
    13b0:	bf 93       	push	r27
    13b2:	ef 93       	push	r30
    13b4:	ff 93       	push	r31
    13b6:	e0 91 74 04 	lds	r30, 0x0474	; 0x800474 <irq_hdl_trx_awake>
    13ba:	f0 91 75 04 	lds	r31, 0x0475	; 0x800475 <irq_hdl_trx_awake+0x1>
    13be:	19 95       	eicall
    13c0:	ff 91       	pop	r31
    13c2:	ef 91       	pop	r30
    13c4:	bf 91       	pop	r27
    13c6:	af 91       	pop	r26
    13c8:	9f 91       	pop	r25
    13ca:	8f 91       	pop	r24
    13cc:	7f 91       	pop	r23
    13ce:	6f 91       	pop	r22
    13d0:	5f 91       	pop	r21
    13d2:	4f 91       	pop	r20
    13d4:	3f 91       	pop	r19
    13d6:	2f 91       	pop	r18
    13d8:	0f 90       	pop	r0
    13da:	0b be       	out	0x3b, r0	; 59
    13dc:	0f 90       	pop	r0
    13de:	0f be       	out	0x3f, r0	; 63
    13e0:	0f 90       	pop	r0
    13e2:	1f 90       	pop	r1
    13e4:	18 95       	reti

000013e6 <__vector_59>:
    13e6:	1f 92       	push	r1
    13e8:	0f 92       	push	r0
    13ea:	0f b6       	in	r0, 0x3f	; 63
    13ec:	0f 92       	push	r0
    13ee:	11 24       	eor	r1, r1
    13f0:	0f 90       	pop	r0
    13f2:	0f be       	out	0x3f, r0	; 63
    13f4:	0f 90       	pop	r0
    13f6:	1f 90       	pop	r1
    13f8:	18 95       	reti

000013fa <__vector_57>:
    13fa:	1f 92       	push	r1
    13fc:	0f 92       	push	r0
    13fe:	0f b6       	in	r0, 0x3f	; 63
    1400:	0f 92       	push	r0
    1402:	11 24       	eor	r1, r1
    1404:	0f 90       	pop	r0
    1406:	0f be       	out	0x3f, r0	; 63
    1408:	0f 90       	pop	r0
    140a:	1f 90       	pop	r1
    140c:	18 95       	reti

0000140e <__vector_58>:
    140e:	1f 92       	push	r1
    1410:	0f 92       	push	r0
    1412:	0f b6       	in	r0, 0x3f	; 63
    1414:	0f 92       	push	r0
    1416:	11 24       	eor	r1, r1
    1418:	0f 90       	pop	r0
    141a:	0f be       	out	0x3f, r0	; 63
    141c:	0f 90       	pop	r0
    141e:	1f 90       	pop	r1
    1420:	18 95       	reti

00001422 <__vector_62>:
    1422:	1f 92       	push	r1
    1424:	0f 92       	push	r0
    1426:	0f b6       	in	r0, 0x3f	; 63
    1428:	0f 92       	push	r0
    142a:	11 24       	eor	r1, r1
    142c:	0f 90       	pop	r0
    142e:	0f be       	out	0x3f, r0	; 63
    1430:	0f 90       	pop	r0
    1432:	1f 90       	pop	r1
    1434:	18 95       	reti

00001436 <__vector_71>:
    1436:	1f 92       	push	r1
    1438:	0f 92       	push	r0
    143a:	0f b6       	in	r0, 0x3f	; 63
    143c:	0f 92       	push	r0
    143e:	11 24       	eor	r1, r1
    1440:	0f 90       	pop	r0
    1442:	0f be       	out	0x3f, r0	; 63
    1444:	0f 90       	pop	r0
    1446:	1f 90       	pop	r1
    1448:	18 95       	reti

0000144a <__vector_70>:
    144a:	1f 92       	push	r1
    144c:	0f 92       	push	r0
    144e:	0f b6       	in	r0, 0x3f	; 63
    1450:	0f 92       	push	r0
    1452:	11 24       	eor	r1, r1
    1454:	0f 90       	pop	r0
    1456:	0f be       	out	0x3f, r0	; 63
    1458:	0f 90       	pop	r0
    145a:	1f 90       	pop	r1
    145c:	18 95       	reti

0000145e <__vector_72>:
    145e:	1f 92       	push	r1
    1460:	0f 92       	push	r0
    1462:	0f b6       	in	r0, 0x3f	; 63
    1464:	0f 92       	push	r0
    1466:	11 24       	eor	r1, r1
    1468:	0f 90       	pop	r0
    146a:	0f be       	out	0x3f, r0	; 63
    146c:	0f 90       	pop	r0
    146e:	1f 90       	pop	r1
    1470:	18 95       	reti

00001472 <__vector_73>:
    1472:	1f 92       	push	r1
    1474:	0f 92       	push	r0
    1476:	0f b6       	in	r0, 0x3f	; 63
    1478:	0f 92       	push	r0
    147a:	11 24       	eor	r1, r1
    147c:	0f 90       	pop	r0
    147e:	0f be       	out	0x3f, r0	; 63
    1480:	0f 90       	pop	r0
    1482:	1f 90       	pop	r1
    1484:	18 95       	reti

00001486 <__vector_74>:
    1486:	1f 92       	push	r1
    1488:	0f 92       	push	r0
    148a:	0f b6       	in	r0, 0x3f	; 63
    148c:	0f 92       	push	r0
    148e:	11 24       	eor	r1, r1
    1490:	0f 90       	pop	r0
    1492:	0f be       	out	0x3f, r0	; 63
    1494:	0f 90       	pop	r0
    1496:	1f 90       	pop	r1
    1498:	18 95       	reti

0000149a <__vector_75>:
    149a:	1f 92       	push	r1
    149c:	0f 92       	push	r0
    149e:	0f b6       	in	r0, 0x3f	; 63
    14a0:	0f 92       	push	r0
    14a2:	11 24       	eor	r1, r1
    14a4:	0f 90       	pop	r0
    14a6:	0f be       	out	0x3f, r0	; 63
    14a8:	0f 90       	pop	r0
    14aa:	1f 90       	pop	r1
    14ac:	18 95       	reti

000014ae <__vector_76>:
    14ae:	1f 92       	push	r1
    14b0:	0f 92       	push	r0
    14b2:	0f b6       	in	r0, 0x3f	; 63
    14b4:	0f 92       	push	r0
    14b6:	11 24       	eor	r1, r1
    14b8:	0f 90       	pop	r0
    14ba:	0f be       	out	0x3f, r0	; 63
    14bc:	0f 90       	pop	r0
    14be:	1f 90       	pop	r1
    14c0:	18 95       	reti

000014c2 <trx_rx_end_handler_cb>:
    14c2:	1f 93       	push	r17
    14c4:	cf 93       	push	r28
    14c6:	df 93       	push	r29
    14c8:	1f 92       	push	r1
    14ca:	cd b7       	in	r28, 0x3d	; 61
    14cc:	de b7       	in	r29, 0x3e	; 62
    14ce:	8f b7       	in	r24, 0x3f	; 63
    14d0:	89 83       	std	Y+1, r24	; 0x01
    14d2:	f8 94       	cli
    14d4:	19 81       	ldd	r17, Y+1	; 0x01
    14d6:	19 d2       	rcall	.+1074   	; 0x190a <handle_received_frame_irq>
    14d8:	1f bf       	out	0x3f, r17	; 63
    14da:	0f 90       	pop	r0
    14dc:	df 91       	pop	r29
    14de:	cf 91       	pop	r28
    14e0:	1f 91       	pop	r17
    14e2:	08 95       	ret

000014e4 <trx_tx_end_handler_cb>:
    14e4:	1f 93       	push	r17
    14e6:	cf 93       	push	r28
    14e8:	df 93       	push	r29
    14ea:	1f 92       	push	r1
    14ec:	cd b7       	in	r28, 0x3d	; 61
    14ee:	de b7       	in	r29, 0x3e	; 62
    14f0:	8f b7       	in	r24, 0x3f	; 63
    14f2:	89 83       	std	Y+1, r24	; 0x01
    14f4:	f8 94       	cli
    14f6:	19 81       	ldd	r17, Y+1	; 0x01
    14f8:	a6 d3       	rcall	.+1868   	; 0x1c46 <handle_tx_end_irq>
    14fa:	1f bf       	out	0x3f, r17	; 63
    14fc:	0f 90       	pop	r0
    14fe:	df 91       	pop	r29
    1500:	cf 91       	pop	r28
    1502:	1f 91       	pop	r17
    1504:	08 95       	ret

00001506 <trx_awake_handler_cb>:
    1506:	81 e0       	ldi	r24, 0x01	; 1
    1508:	80 93 6f 05 	sts	0x056F, r24	; 0x80056f <tal_awake_end_flag>
    150c:	08 95       	ret

0000150e <limit_tx_pwr>:
    150e:	85 fd       	sbrc	r24, 5
    1510:	03 c0       	rjmp	.+6      	; 0x1518 <limit_tx_pwr+0xa>
    1512:	98 2f       	mov	r25, r24
    1514:	9f 73       	andi	r25, 0x3F	; 63
    1516:	04 c0       	rjmp	.+8      	; 0x1520 <limit_tx_pwr+0x12>
    1518:	98 2f       	mov	r25, r24
    151a:	91 95       	neg	r25
    151c:	9f 71       	andi	r25, 0x1F	; 31
    151e:	91 95       	neg	r25
    1520:	e2 e6       	ldi	r30, 0x62	; 98
    1522:	f1 e0       	ldi	r31, 0x01	; 1
    1524:	24 91       	lpm	r18, Z
    1526:	29 17       	cp	r18, r25
    1528:	54 f4       	brge	.+20     	; 0x153e <limit_tx_pwr+0x30>
    152a:	84 91       	lpm	r24, Z
    152c:	80 3e       	cpi	r24, 0xE0	; 224
    152e:	b4 f0       	brlt	.+44     	; 0x155c <limit_tx_pwr+0x4e>
    1530:	80 32       	cpi	r24, 0x20	; 32
    1532:	b4 f4       	brge	.+44     	; 0x1560 <limit_tx_pwr+0x52>
    1534:	88 23       	and	r24, r24
    1536:	cc f4       	brge	.+50     	; 0x156a <limit_tx_pwr+0x5c>
    1538:	8f 71       	andi	r24, 0x1F	; 31
    153a:	80 62       	ori	r24, 0x20	; 32
    153c:	16 c0       	rjmp	.+44     	; 0x156a <limit_tx_pwr+0x5c>
    153e:	e1 e7       	ldi	r30, 0x71	; 113
    1540:	f1 e0       	ldi	r31, 0x01	; 1
    1542:	24 91       	lpm	r18, Z
    1544:	92 17       	cp	r25, r18
    1546:	8c f4       	brge	.+34     	; 0x156a <limit_tx_pwr+0x5c>
    1548:	84 91       	lpm	r24, Z
    154a:	80 3e       	cpi	r24, 0xE0	; 224
    154c:	5c f0       	brlt	.+22     	; 0x1564 <limit_tx_pwr+0x56>
    154e:	80 32       	cpi	r24, 0x20	; 32
    1550:	5c f4       	brge	.+22     	; 0x1568 <limit_tx_pwr+0x5a>
    1552:	88 23       	and	r24, r24
    1554:	54 f4       	brge	.+20     	; 0x156a <limit_tx_pwr+0x5c>
    1556:	8f 71       	andi	r24, 0x1F	; 31
    1558:	80 62       	ori	r24, 0x20	; 32
    155a:	07 c0       	rjmp	.+14     	; 0x156a <limit_tx_pwr+0x5c>
    155c:	80 e2       	ldi	r24, 0x20	; 32
    155e:	05 c0       	rjmp	.+10     	; 0x156a <limit_tx_pwr+0x5c>
    1560:	8f e1       	ldi	r24, 0x1F	; 31
    1562:	03 c0       	rjmp	.+6      	; 0x156a <limit_tx_pwr+0x5c>
    1564:	80 e2       	ldi	r24, 0x20	; 32
    1566:	01 c0       	rjmp	.+2      	; 0x156a <limit_tx_pwr+0x5c>
    1568:	8f e1       	ldi	r24, 0x1F	; 31
    156a:	80 68       	ori	r24, 0x80	; 128
    156c:	08 95       	ret

0000156e <init_tal_pib>:
    156e:	cf 93       	push	r28
    1570:	df 93       	push	r29
    1572:	cc e4       	ldi	r28, 0x4C	; 76
    1574:	d5 e0       	ldi	r29, 0x05	; 5
    1576:	84 e0       	ldi	r24, 0x04	; 4
    1578:	8c 8b       	std	Y+20, r24	; 0x14
    157a:	83 e0       	ldi	r24, 0x03	; 3
    157c:	8d 8b       	std	Y+21, r24	; 0x15
    157e:	2f ef       	ldi	r18, 0xFF	; 255
    1580:	3f ef       	ldi	r19, 0xFF	; 255
    1582:	3f 87       	std	Y+15, r19	; 0x0f
    1584:	2e 87       	std	Y+14, r18	; 0x0e
    1586:	3d 87       	std	Y+13, r19	; 0x0d
    1588:	2c 87       	std	Y+12, r18	; 0x0c
    158a:	9b e0       	ldi	r25, 0x0B	; 11
    158c:	9b 8b       	std	Y+19, r25	; 0x13
    158e:	18 8e       	std	Y+24, r1	; 0x18
    1590:	40 e0       	ldi	r20, 0x00	; 0
    1592:	58 ef       	ldi	r21, 0xF8	; 248
    1594:	6f ef       	ldi	r22, 0xFF	; 255
    1596:	77 e0       	ldi	r23, 0x07	; 7
    1598:	48 87       	std	Y+8, r20	; 0x08
    159a:	59 87       	std	Y+9, r21	; 0x09
    159c:	6a 87       	std	Y+10, r22	; 0x0a
    159e:	7b 87       	std	Y+11, r23	; 0x0b
    15a0:	2a e0       	ldi	r18, 0x0A	; 10
    15a2:	31 e0       	ldi	r19, 0x01	; 1
    15a4:	39 8b       	std	Y+17, r19	; 0x11
    15a6:	28 8b       	std	Y+16, r18	; 0x10
    15a8:	9a e0       	ldi	r25, 0x0A	; 10
    15aa:	99 8f       	std	Y+25, r25	; 0x19
    15ac:	92 e0       	ldi	r25, 0x02	; 2
    15ae:	9a 8f       	std	Y+26, r25	; 0x1a
    15b0:	95 e0       	ldi	r25, 0x05	; 5
    15b2:	9b 8f       	std	Y+27, r25	; 0x1b
    15b4:	8c 8f       	std	Y+28, r24	; 0x1c
    15b6:	84 e8       	ldi	r24, 0x84	; 132
    15b8:	aa df       	rcall	.-172    	; 0x150e <limit_tx_pwr>
    15ba:	8f 8b       	std	Y+23, r24	; 0x17
    15bc:	81 e0       	ldi	r24, 0x01	; 1
    15be:	8a 8b       	std	Y+18, r24	; 0x12
    15c0:	1e 8a       	std	Y+22, r1	; 0x16
    15c2:	df 91       	pop	r29
    15c4:	cf 91       	pop	r28
    15c6:	08 95       	ret

000015c8 <convert_phyTransmitPower_to_reg_value>:
    15c8:	85 fd       	sbrc	r24, 5
    15ca:	02 c0       	rjmp	.+4      	; 0x15d0 <convert_phyTransmitPower_to_reg_value+0x8>
    15cc:	8f 73       	andi	r24, 0x3F	; 63
    15ce:	03 c0       	rjmp	.+6      	; 0x15d6 <convert_phyTransmitPower_to_reg_value+0xe>
    15d0:	81 95       	neg	r24
    15d2:	8f 71       	andi	r24, 0x1F	; 31
    15d4:	81 95       	neg	r24
    15d6:	e2 e6       	ldi	r30, 0x62	; 98
    15d8:	f1 e0       	ldi	r31, 0x01	; 1
    15da:	94 91       	lpm	r25, Z
    15dc:	89 17       	cp	r24, r25
    15de:	3c f4       	brge	.+14     	; 0x15ee <convert_phyTransmitPower_to_reg_value+0x26>
    15e0:	e3 e6       	ldi	r30, 0x63	; 99
    15e2:	f1 e0       	ldi	r31, 0x01	; 1
    15e4:	21 e0       	ldi	r18, 0x01	; 1
    15e6:	94 91       	lpm	r25, Z
    15e8:	89 17       	cp	r24, r25
    15ea:	3c f0       	brlt	.+14     	; 0x15fa <convert_phyTransmitPower_to_reg_value+0x32>
    15ec:	01 c0       	rjmp	.+2      	; 0x15f0 <convert_phyTransmitPower_to_reg_value+0x28>
    15ee:	20 e0       	ldi	r18, 0x00	; 0
    15f0:	98 17       	cp	r25, r24
    15f2:	4c f4       	brge	.+18     	; 0x1606 <convert_phyTransmitPower_to_reg_value+0x3e>
    15f4:	8f ef       	ldi	r24, 0xFF	; 255
    15f6:	82 0f       	add	r24, r18
    15f8:	08 95       	ret
    15fa:	2f 5f       	subi	r18, 0xFF	; 255
    15fc:	31 96       	adiw	r30, 0x01	; 1
    15fe:	20 31       	cpi	r18, 0x10	; 16
    1600:	91 f7       	brne	.-28     	; 0x15e6 <convert_phyTransmitPower_to_reg_value+0x1e>
    1602:	80 e0       	ldi	r24, 0x00	; 0
    1604:	08 95       	ret
    1606:	82 2f       	mov	r24, r18
    1608:	08 95       	ret

0000160a <write_all_tal_pib_to_trx>:
    160a:	cf 93       	push	r28
    160c:	df 93       	push	r29
    160e:	ec e4       	ldi	r30, 0x4C	; 76
    1610:	f5 e0       	ldi	r31, 0x05	; 5
    1612:	86 85       	ldd	r24, Z+14	; 0x0e
    1614:	80 93 62 01 	sts	0x0162, r24	; 0x800162 <__TEXT_REGION_LENGTH__+0x700162>
    1618:	87 85       	ldd	r24, Z+15	; 0x0f
    161a:	80 93 63 01 	sts	0x0163, r24	; 0x800163 <__TEXT_REGION_LENGTH__+0x700163>
    161e:	e4 e6       	ldi	r30, 0x64	; 100
    1620:	f1 e0       	ldi	r31, 0x01	; 1
    1622:	ac e4       	ldi	r26, 0x4C	; 76
    1624:	b5 e0       	ldi	r27, 0x05	; 5
    1626:	8d 91       	ld	r24, X+
    1628:	81 93       	st	Z+, r24
    162a:	ec 36       	cpi	r30, 0x6C	; 108
    162c:	31 e0       	ldi	r19, 0x01	; 1
    162e:	f3 07       	cpc	r31, r19
    1630:	d1 f7       	brne	.-12     	; 0x1626 <write_all_tal_pib_to_trx+0x1c>
    1632:	ec e4       	ldi	r30, 0x4C	; 76
    1634:	f5 e0       	ldi	r31, 0x05	; 5
    1636:	84 85       	ldd	r24, Z+12	; 0x0c
    1638:	80 93 60 01 	sts	0x0160, r24	; 0x800160 <__TEXT_REGION_LENGTH__+0x700160>
    163c:	85 85       	ldd	r24, Z+13	; 0x0d
    163e:	80 93 61 01 	sts	0x0161, r24	; 0x800161 <__TEXT_REGION_LENGTH__+0x700161>
    1642:	48 e4       	ldi	r20, 0x48	; 72
    1644:	51 e0       	ldi	r21, 0x01	; 1
    1646:	da 01       	movw	r26, r20
    1648:	8c 91       	ld	r24, X
    164a:	22 89       	ldd	r18, Z+18	; 0x12
    164c:	b0 e2       	ldi	r27, 0x20	; 32
    164e:	2b 9f       	mul	r18, r27
    1650:	90 01       	movw	r18, r0
    1652:	11 24       	eor	r1, r1
    1654:	20 76       	andi	r18, 0x60	; 96
    1656:	8f 79       	andi	r24, 0x9F	; 159
    1658:	82 2b       	or	r24, r18
    165a:	da 01       	movw	r26, r20
    165c:	8c 93       	st	X, r24
    165e:	cf e6       	ldi	r28, 0x6F	; 111
    1660:	d1 e0       	ldi	r29, 0x01	; 1
    1662:	88 81       	ld	r24, Y
    1664:	95 89       	ldd	r25, Z+21	; 0x15
    1666:	9f 70       	andi	r25, 0x0F	; 15
    1668:	80 7f       	andi	r24, 0xF0	; 240
    166a:	89 2b       	or	r24, r25
    166c:	88 83       	st	Y, r24
    166e:	2e e6       	ldi	r18, 0x6E	; 110
    1670:	31 e0       	ldi	r19, 0x01	; 1
    1672:	d9 01       	movw	r26, r18
    1674:	8c 91       	ld	r24, X
    1676:	96 89       	ldd	r25, Z+22	; 0x16
    1678:	99 0f       	add	r25, r25
    167a:	99 0f       	add	r25, r25
    167c:	99 0f       	add	r25, r25
    167e:	98 70       	andi	r25, 0x08	; 8
    1680:	87 7f       	andi	r24, 0xF7	; 247
    1682:	89 2b       	or	r24, r25
    1684:	8c 93       	st	X, r24
    1686:	28 81       	ld	r18, Y
    1688:	93 8d       	ldd	r25, Z+27	; 0x1b
    168a:	b0 e1       	ldi	r27, 0x10	; 16
    168c:	9b 9f       	mul	r25, r27
    168e:	c0 01       	movw	r24, r0
    1690:	11 24       	eor	r1, r1
    1692:	92 2f       	mov	r25, r18
    1694:	9f 70       	andi	r25, 0x0F	; 15
    1696:	89 2b       	or	r24, r25
    1698:	88 83       	st	Y, r24
    169a:	da 01       	movw	r26, r20
    169c:	8c 91       	ld	r24, X
    169e:	93 89       	ldd	r25, Z+19	; 0x13
    16a0:	9f 71       	andi	r25, 0x1F	; 31
    16a2:	80 7e       	andi	r24, 0xE0	; 224
    16a4:	89 2b       	or	r24, r25
    16a6:	8c 93       	st	X, r24
    16a8:	87 89       	ldd	r24, Z+23	; 0x17
    16aa:	8e df       	rcall	.-228    	; 0x15c8 <convert_phyTransmitPower_to_reg_value>
    16ac:	e5 e4       	ldi	r30, 0x45	; 69
    16ae:	f1 e0       	ldi	r31, 0x01	; 1
    16b0:	90 81       	ld	r25, Z
    16b2:	90 7f       	andi	r25, 0xF0	; 240
    16b4:	8f 70       	andi	r24, 0x0F	; 15
    16b6:	89 2b       	or	r24, r25
    16b8:	80 83       	st	Z, r24
    16ba:	df 91       	pop	r29
    16bc:	cf 91       	pop	r28
    16be:	08 95       	ret

000016c0 <tal_pib_set>:
    16c0:	cf 93       	push	r28
    16c2:	df 93       	push	r29
    16c4:	8e 34       	cpi	r24, 0x4E	; 78
    16c6:	41 f0       	breq	.+16     	; 0x16d8 <tal_pib_set+0x18>
    16c8:	89 35       	cpi	r24, 0x59	; 89
    16ca:	61 f4       	brne	.+24     	; 0x16e4 <tal_pib_set+0x24>
    16cc:	fb 01       	movw	r30, r22
    16ce:	80 81       	ld	r24, Z
    16d0:	80 93 68 05 	sts	0x0568, r24	; 0x800568 <tal_pib+0x1c>
    16d4:	80 e0       	ldi	r24, 0x00	; 0
    16d6:	0b c1       	rjmp	.+534    	; 0x18ee <tal_pib_set+0x22e>
    16d8:	fb 01       	movw	r30, r22
    16da:	80 81       	ld	r24, Z
    16dc:	80 93 60 05 	sts	0x0560, r24	; 0x800560 <tal_pib+0x14>
    16e0:	80 e0       	ldi	r24, 0x00	; 0
    16e2:	05 c1       	rjmp	.+522    	; 0x18ee <tal_pib_set+0x22e>
    16e4:	90 91 6b 05 	lds	r25, 0x056B	; 0x80056b <tal_trx_status>
    16e8:	9f 30       	cpi	r25, 0x0F	; 15
    16ea:	09 f4       	brne	.+2      	; 0x16ee <tal_pib_set+0x2e>
    16ec:	dc c0       	rjmp	.+440    	; 0x18a6 <tal_pib_set+0x1e6>
    16ee:	8b 30       	cpi	r24, 0x0B	; 11
    16f0:	09 f4       	brne	.+2      	; 0x16f4 <tal_pib_set+0x34>
    16f2:	c9 c0       	rjmp	.+402    	; 0x1886 <tal_pib_set+0x1c6>
    16f4:	80 f4       	brcc	.+32     	; 0x1716 <tal_pib_set+0x56>
    16f6:	eb 01       	movw	r28, r22
    16f8:	82 30       	cpi	r24, 0x02	; 2
    16fa:	09 f4       	brne	.+2      	; 0x16fe <tal_pib_set+0x3e>
    16fc:	84 c0       	rjmp	.+264    	; 0x1806 <tal_pib_set+0x146>
    16fe:	20 f4       	brcc	.+8      	; 0x1708 <tal_pib_set+0x48>
    1700:	88 23       	and	r24, r24
    1702:	09 f4       	brne	.+2      	; 0x1706 <tal_pib_set+0x46>
    1704:	46 c0       	rjmp	.+140    	; 0x1792 <tal_pib_set+0xd2>
    1706:	d1 c0       	rjmp	.+418    	; 0x18aa <tal_pib_set+0x1ea>
    1708:	83 30       	cpi	r24, 0x03	; 3
    170a:	09 f4       	brne	.+2      	; 0x170e <tal_pib_set+0x4e>
    170c:	8c c0       	rjmp	.+280    	; 0x1826 <tal_pib_set+0x166>
    170e:	84 30       	cpi	r24, 0x04	; 4
    1710:	09 f4       	brne	.+2      	; 0x1714 <tal_pib_set+0x54>
    1712:	5a c0       	rjmp	.+180    	; 0x17c8 <tal_pib_set+0x108>
    1714:	ca c0       	rjmp	.+404    	; 0x18aa <tal_pib_set+0x1ea>
    1716:	83 35       	cpi	r24, 0x53	; 83
    1718:	79 f1       	breq	.+94     	; 0x1778 <tal_pib_set+0xb8>
    171a:	28 f4       	brcc	.+10     	; 0x1726 <tal_pib_set+0x66>
    171c:	8f 34       	cpi	r24, 0x4F	; 79
    171e:	51 f0       	breq	.+20     	; 0x1734 <tal_pib_set+0x74>
    1720:	80 35       	cpi	r24, 0x50	; 80
    1722:	e9 f0       	breq	.+58     	; 0x175e <tal_pib_set+0x9e>
    1724:	c2 c0       	rjmp	.+388    	; 0x18aa <tal_pib_set+0x1ea>
    1726:	87 35       	cpi	r24, 0x57	; 87
    1728:	09 f4       	brne	.+2      	; 0x172c <tal_pib_set+0x6c>
    172a:	56 c0       	rjmp	.+172    	; 0x17d8 <tal_pib_set+0x118>
    172c:	80 3f       	cpi	r24, 0xF0	; 240
    172e:	09 f4       	brne	.+2      	; 0x1732 <tal_pib_set+0x72>
    1730:	8b c0       	rjmp	.+278    	; 0x1848 <tal_pib_set+0x188>
    1732:	bb c0       	rjmp	.+374    	; 0x18aa <tal_pib_set+0x1ea>
    1734:	fb 01       	movw	r30, r22
    1736:	80 81       	ld	r24, Z
    1738:	ec e4       	ldi	r30, 0x4C	; 76
    173a:	f5 e0       	ldi	r31, 0x05	; 5
    173c:	85 8b       	std	Z+21, r24	; 0x15
    173e:	93 8d       	ldd	r25, Z+27	; 0x1b
    1740:	98 17       	cp	r25, r24
    1742:	10 f4       	brcc	.+4      	; 0x1748 <tal_pib_set+0x88>
    1744:	90 93 61 05 	sts	0x0561, r25	; 0x800561 <tal_pib+0x15>
    1748:	ef e6       	ldi	r30, 0x6F	; 111
    174a:	f1 e0       	ldi	r31, 0x01	; 1
    174c:	80 81       	ld	r24, Z
    174e:	90 91 61 05 	lds	r25, 0x0561	; 0x800561 <tal_pib+0x15>
    1752:	9f 70       	andi	r25, 0x0F	; 15
    1754:	80 7f       	andi	r24, 0xF0	; 240
    1756:	89 2b       	or	r24, r25
    1758:	80 83       	st	Z, r24
    175a:	80 e0       	ldi	r24, 0x00	; 0
    175c:	c8 c0       	rjmp	.+400    	; 0x18ee <tal_pib_set+0x22e>
    175e:	fb 01       	movw	r30, r22
    1760:	90 81       	ld	r25, Z
    1762:	81 81       	ldd	r24, Z+1	; 0x01
    1764:	ec e4       	ldi	r30, 0x4C	; 76
    1766:	f5 e0       	ldi	r31, 0x05	; 5
    1768:	96 87       	std	Z+14, r25	; 0x0e
    176a:	87 87       	std	Z+15, r24	; 0x0f
    176c:	90 93 62 01 	sts	0x0162, r25	; 0x800162 <__TEXT_REGION_LENGTH__+0x700162>
    1770:	80 93 63 01 	sts	0x0163, r24	; 0x800163 <__TEXT_REGION_LENGTH__+0x700163>
    1774:	80 e0       	ldi	r24, 0x00	; 0
    1776:	bb c0       	rjmp	.+374    	; 0x18ee <tal_pib_set+0x22e>
    1778:	fb 01       	movw	r30, r22
    177a:	90 81       	ld	r25, Z
    177c:	81 81       	ldd	r24, Z+1	; 0x01
    177e:	ec e4       	ldi	r30, 0x4C	; 76
    1780:	f5 e0       	ldi	r31, 0x05	; 5
    1782:	94 87       	std	Z+12, r25	; 0x0c
    1784:	85 87       	std	Z+13, r24	; 0x0d
    1786:	90 93 60 01 	sts	0x0160, r25	; 0x800160 <__TEXT_REGION_LENGTH__+0x700160>
    178a:	80 93 61 01 	sts	0x0161, r24	; 0x800161 <__TEXT_REGION_LENGTH__+0x700161>
    178e:	80 e0       	ldi	r24, 0x00	; 0
    1790:	ae c0       	rjmp	.+348    	; 0x18ee <tal_pib_set+0x22e>
    1792:	80 91 70 05 	lds	r24, 0x0570	; 0x800570 <tal_state>
    1796:	81 11       	cpse	r24, r1
    1798:	8a c0       	rjmp	.+276    	; 0x18ae <tal_pib_set+0x1ee>
    179a:	88 81       	ld	r24, Y
    179c:	40 e0       	ldi	r20, 0x00	; 0
    179e:	58 ef       	ldi	r21, 0xF8	; 248
    17a0:	6f ef       	ldi	r22, 0xFF	; 255
    17a2:	77 e0       	ldi	r23, 0x07	; 7
    17a4:	08 2e       	mov	r0, r24
    17a6:	04 c0       	rjmp	.+8      	; 0x17b0 <tal_pib_set+0xf0>
    17a8:	76 95       	lsr	r23
    17aa:	67 95       	ror	r22
    17ac:	57 95       	ror	r21
    17ae:	47 95       	ror	r20
    17b0:	0a 94       	dec	r0
    17b2:	d2 f7       	brpl	.-12     	; 0x17a8 <tal_pib_set+0xe8>
    17b4:	40 ff       	sbrs	r20, 0
    17b6:	7d c0       	rjmp	.+250    	; 0x18b2 <tal_pib_set+0x1f2>
    17b8:	98 30       	cpi	r25, 0x08	; 8
    17ba:	09 f4       	brne	.+2      	; 0x17be <tal_pib_set+0xfe>
    17bc:	80 c0       	rjmp	.+256    	; 0x18be <tal_pib_set+0x1fe>
    17be:	88 e0       	ldi	r24, 0x08	; 8
    17c0:	6d da       	rcall	.-2854   	; 0xc9c <set_trx_state>
    17c2:	88 30       	cpi	r24, 0x08	; 8
    17c4:	e1 f7       	brne	.-8      	; 0x17be <tal_pib_set+0xfe>
    17c6:	86 c0       	rjmp	.+268    	; 0x18d4 <tal_pib_set+0x214>
    17c8:	80 91 70 05 	lds	r24, 0x0570	; 0x800570 <tal_state>
    17cc:	81 11       	cpse	r24, r1
    17ce:	73 c0       	rjmp	.+230    	; 0x18b6 <tal_pib_set+0x1f6>
    17d0:	88 81       	ld	r24, Y
    17d2:	81 11       	cpse	r24, r1
    17d4:	72 c0       	rjmp	.+228    	; 0x18ba <tal_pib_set+0x1fa>
    17d6:	8b c0       	rjmp	.+278    	; 0x18ee <tal_pib_set+0x22e>
    17d8:	fb 01       	movw	r30, r22
    17da:	90 81       	ld	r25, Z
    17dc:	ec e4       	ldi	r30, 0x4C	; 76
    17de:	f5 e0       	ldi	r31, 0x05	; 5
    17e0:	93 8f       	std	Z+27, r25	; 0x1b
    17e2:	85 89       	ldd	r24, Z+21	; 0x15
    17e4:	98 17       	cp	r25, r24
    17e6:	10 f4       	brcc	.+4      	; 0x17ec <tal_pib_set+0x12c>
    17e8:	90 93 61 05 	sts	0x0561, r25	; 0x800561 <tal_pib+0x15>
    17ec:	ef e6       	ldi	r30, 0x6F	; 111
    17ee:	f1 e0       	ldi	r31, 0x01	; 1
    17f0:	80 81       	ld	r24, Z
    17f2:	28 2f       	mov	r18, r24
    17f4:	2f 70       	andi	r18, 0x0F	; 15
    17f6:	30 e1       	ldi	r19, 0x10	; 16
    17f8:	93 9f       	mul	r25, r19
    17fa:	c0 01       	movw	r24, r0
    17fc:	11 24       	eor	r1, r1
    17fe:	82 2b       	or	r24, r18
    1800:	80 83       	st	Z, r24
    1802:	80 e0       	ldi	r24, 0x00	; 0
    1804:	74 c0       	rjmp	.+232    	; 0x18ee <tal_pib_set+0x22e>
    1806:	88 81       	ld	r24, Y
    1808:	cc e4       	ldi	r28, 0x4C	; 76
    180a:	d5 e0       	ldi	r29, 0x05	; 5
    180c:	8f 8b       	std	Y+23, r24	; 0x17
    180e:	7f de       	rcall	.-770    	; 0x150e <limit_tx_pwr>
    1810:	8f 8b       	std	Y+23, r24	; 0x17
    1812:	da de       	rcall	.-588    	; 0x15c8 <convert_phyTransmitPower_to_reg_value>
    1814:	e5 e4       	ldi	r30, 0x45	; 69
    1816:	f1 e0       	ldi	r31, 0x01	; 1
    1818:	90 81       	ld	r25, Z
    181a:	90 7f       	andi	r25, 0xF0	; 240
    181c:	8f 70       	andi	r24, 0x0F	; 15
    181e:	89 2b       	or	r24, r25
    1820:	80 83       	st	Z, r24
    1822:	80 e0       	ldi	r24, 0x00	; 0
    1824:	64 c0       	rjmp	.+200    	; 0x18ee <tal_pib_set+0x22e>
    1826:	88 81       	ld	r24, Y
    1828:	80 93 5e 05 	sts	0x055E, r24	; 0x80055e <tal_pib+0x12>
    182c:	e8 e4       	ldi	r30, 0x48	; 72
    182e:	f1 e0       	ldi	r31, 0x01	; 1
    1830:	20 81       	ld	r18, Z
    1832:	30 e2       	ldi	r19, 0x20	; 32
    1834:	83 9f       	mul	r24, r19
    1836:	c0 01       	movw	r24, r0
    1838:	11 24       	eor	r1, r1
    183a:	80 76       	andi	r24, 0x60	; 96
    183c:	92 2f       	mov	r25, r18
    183e:	9f 79       	andi	r25, 0x9F	; 159
    1840:	89 2b       	or	r24, r25
    1842:	80 83       	st	Z, r24
    1844:	80 e0       	ldi	r24, 0x00	; 0
    1846:	53 c0       	rjmp	.+166    	; 0x18ee <tal_pib_set+0x22e>
    1848:	fb 01       	movw	r30, r22
    184a:	b0 81       	ld	r27, Z
    184c:	a1 81       	ldd	r26, Z+1	; 0x01
    184e:	52 81       	ldd	r21, Z+2	; 0x02
    1850:	43 81       	ldd	r20, Z+3	; 0x03
    1852:	34 81       	ldd	r19, Z+4	; 0x04
    1854:	25 81       	ldd	r18, Z+5	; 0x05
    1856:	96 81       	ldd	r25, Z+6	; 0x06
    1858:	87 81       	ldd	r24, Z+7	; 0x07
    185a:	ec e4       	ldi	r30, 0x4C	; 76
    185c:	f5 e0       	ldi	r31, 0x05	; 5
    185e:	b0 83       	st	Z, r27
    1860:	a1 83       	std	Z+1, r26	; 0x01
    1862:	52 83       	std	Z+2, r21	; 0x02
    1864:	43 83       	std	Z+3, r20	; 0x03
    1866:	34 83       	std	Z+4, r19	; 0x04
    1868:	25 83       	std	Z+5, r18	; 0x05
    186a:	96 83       	std	Z+6, r25	; 0x06
    186c:	87 83       	std	Z+7, r24	; 0x07
    186e:	e4 e6       	ldi	r30, 0x64	; 100
    1870:	f1 e0       	ldi	r31, 0x01	; 1
    1872:	ac e4       	ldi	r26, 0x4C	; 76
    1874:	b5 e0       	ldi	r27, 0x05	; 5
    1876:	8d 91       	ld	r24, X+
    1878:	81 93       	st	Z+, r24
    187a:	ec 36       	cpi	r30, 0x6C	; 108
    187c:	31 e0       	ldi	r19, 0x01	; 1
    187e:	f3 07       	cpc	r31, r19
    1880:	d1 f7       	brne	.-12     	; 0x1876 <tal_pib_set+0x1b6>
    1882:	80 e0       	ldi	r24, 0x00	; 0
    1884:	34 c0       	rjmp	.+104    	; 0x18ee <tal_pib_set+0x22e>
    1886:	fb 01       	movw	r30, r22
    1888:	80 81       	ld	r24, Z
    188a:	80 93 62 05 	sts	0x0562, r24	; 0x800562 <tal_pib+0x16>
    188e:	ee e6       	ldi	r30, 0x6E	; 110
    1890:	f1 e0       	ldi	r31, 0x01	; 1
    1892:	90 81       	ld	r25, Z
    1894:	88 0f       	add	r24, r24
    1896:	88 0f       	add	r24, r24
    1898:	88 0f       	add	r24, r24
    189a:	88 70       	andi	r24, 0x08	; 8
    189c:	97 7f       	andi	r25, 0xF7	; 247
    189e:	89 2b       	or	r24, r25
    18a0:	80 83       	st	Z, r24
    18a2:	80 e0       	ldi	r24, 0x00	; 0
    18a4:	24 c0       	rjmp	.+72     	; 0x18ee <tal_pib_set+0x22e>
    18a6:	81 e8       	ldi	r24, 0x81	; 129
    18a8:	22 c0       	rjmp	.+68     	; 0x18ee <tal_pib_set+0x22e>
    18aa:	84 ef       	ldi	r24, 0xF4	; 244
    18ac:	20 c0       	rjmp	.+64     	; 0x18ee <tal_pib_set+0x22e>
    18ae:	86 e8       	ldi	r24, 0x86	; 134
    18b0:	1e c0       	rjmp	.+60     	; 0x18ee <tal_pib_set+0x22e>
    18b2:	88 ee       	ldi	r24, 0xE8	; 232
    18b4:	1c c0       	rjmp	.+56     	; 0x18ee <tal_pib_set+0x22e>
    18b6:	86 e8       	ldi	r24, 0x86	; 134
    18b8:	1a c0       	rjmp	.+52     	; 0x18ee <tal_pib_set+0x22e>
    18ba:	88 ee       	ldi	r24, 0xE8	; 232
    18bc:	18 c0       	rjmp	.+48     	; 0x18ee <tal_pib_set+0x22e>
    18be:	80 93 5f 05 	sts	0x055F, r24	; 0x80055f <tal_pib+0x13>
    18c2:	e8 e4       	ldi	r30, 0x48	; 72
    18c4:	f1 e0       	ldi	r31, 0x01	; 1
    18c6:	90 81       	ld	r25, Z
    18c8:	90 7e       	andi	r25, 0xE0	; 224
    18ca:	8f 71       	andi	r24, 0x1F	; 31
    18cc:	89 2b       	or	r24, r25
    18ce:	80 83       	st	Z, r24
    18d0:	80 e0       	ldi	r24, 0x00	; 0
    18d2:	0d c0       	rjmp	.+26     	; 0x18ee <tal_pib_set+0x22e>
    18d4:	88 81       	ld	r24, Y
    18d6:	80 93 5f 05 	sts	0x055F, r24	; 0x80055f <tal_pib+0x13>
    18da:	e8 e4       	ldi	r30, 0x48	; 72
    18dc:	f1 e0       	ldi	r31, 0x01	; 1
    18de:	90 81       	ld	r25, Z
    18e0:	90 7e       	andi	r25, 0xE0	; 224
    18e2:	8f 71       	andi	r24, 0x1F	; 31
    18e4:	89 2b       	or	r24, r25
    18e6:	80 83       	st	Z, r24
    18e8:	86 e1       	ldi	r24, 0x16	; 22
    18ea:	d8 d9       	rcall	.-3152   	; 0xc9c <set_trx_state>
    18ec:	80 e0       	ldi	r24, 0x00	; 0
    18ee:	df 91       	pop	r29
    18f0:	cf 91       	pop	r28
    18f2:	08 95       	ret

000018f4 <__portable_avr_delay_cycles>:
    18f4:	04 c0       	rjmp	.+8      	; 0x18fe <__portable_avr_delay_cycles+0xa>
    18f6:	61 50       	subi	r22, 0x01	; 1
    18f8:	71 09       	sbc	r23, r1
    18fa:	81 09       	sbc	r24, r1
    18fc:	91 09       	sbc	r25, r1
    18fe:	61 15       	cp	r22, r1
    1900:	71 05       	cpc	r23, r1
    1902:	81 05       	cpc	r24, r1
    1904:	91 05       	cpc	r25, r1
    1906:	b9 f7       	brne	.-18     	; 0x18f6 <__portable_avr_delay_cycles+0x2>
    1908:	08 95       	ret

0000190a <handle_received_frame_irq>:
    190a:	cf 92       	push	r12
    190c:	df 92       	push	r13
    190e:	ef 92       	push	r14
    1910:	ff 92       	push	r15
    1912:	0f 93       	push	r16
    1914:	1f 93       	push	r17
    1916:	cf 93       	push	r28
    1918:	df 93       	push	r29
    191a:	e0 91 72 04 	lds	r30, 0x0472	; 0x800472 <tal_rx_buffer>
    191e:	f0 91 73 04 	lds	r31, 0x0473	; 0x800473 <tal_rx_buffer+0x1>
    1922:	30 97       	sbiw	r30, 0x00	; 0
    1924:	71 f4       	brne	.+28     	; 0x1942 <handle_received_frame_irq+0x38>
    1926:	cc e4       	ldi	r28, 0x4C	; 76
    1928:	d1 e0       	ldi	r29, 0x01	; 1
    192a:	88 81       	ld	r24, Y
    192c:	8f 77       	andi	r24, 0x7F	; 127
    192e:	88 83       	st	Y, r24
    1930:	63 e0       	ldi	r22, 0x03	; 3
    1932:	70 e0       	ldi	r23, 0x00	; 0
    1934:	80 e0       	ldi	r24, 0x00	; 0
    1936:	90 e0       	ldi	r25, 0x00	; 0
    1938:	dd df       	rcall	.-70     	; 0x18f4 <__portable_avr_delay_cycles>
    193a:	88 81       	ld	r24, Y
    193c:	80 68       	ori	r24, 0x80	; 128
    193e:	88 83       	st	Y, r24
    1940:	48 c0       	rjmp	.+144    	; 0x19d2 <handle_received_frame_irq+0xc8>
    1942:	00 91 47 01 	lds	r16, 0x0147	; 0x800147 <__TEXT_REGION_LENGTH__+0x700147>
    1946:	10 91 7b 01 	lds	r17, 0x017B	; 0x80017b <__TEXT_REGION_LENGTH__+0x70017b>
    194a:	11 23       	and	r17, r17
    194c:	0c f4       	brge	.+2      	; 0x1950 <handle_received_frame_irq+0x46>
    194e:	41 c0       	rjmp	.+130    	; 0x19d2 <handle_received_frame_irq+0xc8>
    1950:	e0 80       	ld	r14, Z
    1952:	f1 80       	ldd	r15, Z+1	; 0x01
    1954:	82 e0       	ldi	r24, 0x02	; 2
    1956:	81 0f       	add	r24, r17
    1958:	eb e8       	ldi	r30, 0x8B	; 139
    195a:	f0 e0       	ldi	r31, 0x00	; 0
    195c:	e8 1b       	sub	r30, r24
    195e:	f1 09       	sbc	r31, r1
    1960:	e7 01       	movw	r28, r14
    1962:	ce 0f       	add	r28, r30
    1964:	df 1f       	adc	r29, r31
    1966:	c1 2e       	mov	r12, r17
    1968:	d1 2c       	mov	r13, r1
    196a:	a6 01       	movw	r20, r12
    196c:	4f 5f       	subi	r20, 0xFF	; 255
    196e:	5f 4f       	sbci	r21, 0xFF	; 255
    1970:	60 e8       	ldi	r22, 0x80	; 128
    1972:	71 e0       	ldi	r23, 0x01	; 1
    1974:	ce 01       	movw	r24, r28
    1976:	70 d7       	rcall	.+3808   	; 0x2858 <memcpy>
    1978:	fe 01       	movw	r30, r28
    197a:	12 93       	st	-Z, r17
    197c:	d7 01       	movw	r26, r14
    197e:	18 96       	adiw	r26, 0x08	; 8
    1980:	fc 93       	st	X, r31
    1982:	ee 93       	st	-X, r30
    1984:	17 97       	sbiw	r26, 0x07	; 7
    1986:	ec 0d       	add	r30, r12
    1988:	fd 1d       	adc	r31, r13
    198a:	02 83       	std	Z+2, r16	; 0x02
    198c:	60 91 72 04 	lds	r22, 0x0472	; 0x800472 <tal_rx_buffer>
    1990:	70 91 73 04 	lds	r23, 0x0473	; 0x800473 <tal_rx_buffer+0x1>
    1994:	85 e4       	ldi	r24, 0x45	; 69
    1996:	95 e0       	ldi	r25, 0x05	; 5
    1998:	2d d9       	rcall	.-3494   	; 0xbf4 <qmm_queue_append>
    199a:	8b e8       	ldi	r24, 0x8B	; 139
    199c:	93 d8       	rcall	.-3802   	; 0xac4 <bmm_buffer_alloc>
    199e:	90 93 73 04 	sts	0x0473, r25	; 0x800473 <tal_rx_buffer+0x1>
    19a2:	80 93 72 04 	sts	0x0472, r24	; 0x800472 <tal_rx_buffer>
    19a6:	89 2b       	or	r24, r25
    19a8:	21 f4       	brne	.+8      	; 0x19b2 <handle_received_frame_irq+0xa8>
    19aa:	81 e0       	ldi	r24, 0x01	; 1
    19ac:	80 93 44 05 	sts	0x0544, r24	; 0x800544 <tal_rx_on_required>
    19b0:	0d c0       	rjmp	.+26     	; 0x19cc <handle_received_frame_irq+0xc2>
    19b2:	cc e4       	ldi	r28, 0x4C	; 76
    19b4:	d1 e0       	ldi	r29, 0x01	; 1
    19b6:	88 81       	ld	r24, Y
    19b8:	8f 77       	andi	r24, 0x7F	; 127
    19ba:	88 83       	st	Y, r24
    19bc:	63 e0       	ldi	r22, 0x03	; 3
    19be:	70 e0       	ldi	r23, 0x00	; 0
    19c0:	80 e0       	ldi	r24, 0x00	; 0
    19c2:	90 e0       	ldi	r25, 0x00	; 0
    19c4:	97 df       	rcall	.-210    	; 0x18f4 <__portable_avr_delay_cycles>
    19c6:	88 81       	ld	r24, Y
    19c8:	80 68       	ori	r24, 0x80	; 128
    19ca:	88 83       	st	Y, r24
    19cc:	80 e4       	ldi	r24, 0x40	; 64
    19ce:	80 93 4f 01 	sts	0x014F, r24	; 0x80014f <__TEXT_REGION_LENGTH__+0x70014f>
    19d2:	df 91       	pop	r29
    19d4:	cf 91       	pop	r28
    19d6:	1f 91       	pop	r17
    19d8:	0f 91       	pop	r16
    19da:	ff 90       	pop	r15
    19dc:	ef 90       	pop	r14
    19de:	df 90       	pop	r13
    19e0:	cf 90       	pop	r12
    19e2:	08 95       	ret

000019e4 <process_incoming_frame>:
    19e4:	cf 93       	push	r28
    19e6:	df 93       	push	r29
    19e8:	ac 01       	movw	r20, r24
    19ea:	fc 01       	movw	r30, r24
    19ec:	c0 81       	ld	r28, Z
    19ee:	d1 81       	ldd	r29, Z+1	; 0x01
    19f0:	af 81       	ldd	r26, Y+7	; 0x07
    19f2:	b8 85       	ldd	r27, Y+8	; 0x08
    19f4:	8c 91       	ld	r24, X
    19f6:	80 93 6c 05 	sts	0x056C, r24	; 0x80056c <last_frame_length>
    19fa:	e8 2f       	mov	r30, r24
    19fc:	f0 e0       	ldi	r31, 0x00	; 0
    19fe:	31 96       	adiw	r30, 0x01	; 1
    1a00:	ea 0f       	add	r30, r26
    1a02:	fb 1f       	adc	r31, r27
    1a04:	80 81       	ld	r24, Z
    1a06:	31 81       	ldd	r19, Z+1	; 0x01
    1a08:	3d 33       	cpi	r19, 0x3D	; 61
    1a0a:	20 f4       	brcc	.+8      	; 0x1a14 <process_incoming_frame+0x30>
    1a0c:	31 11       	cpse	r19, r1
    1a0e:	03 c0       	rjmp	.+6      	; 0x1a16 <process_incoming_frame+0x32>
    1a10:	31 e0       	ldi	r19, 0x01	; 1
    1a12:	01 c0       	rjmp	.+2      	; 0x1a16 <process_incoming_frame+0x32>
    1a14:	3c e3       	ldi	r19, 0x3C	; 60
    1a16:	82 95       	swap	r24
    1a18:	86 95       	lsr	r24
    1a1a:	86 95       	lsr	r24
    1a1c:	83 70       	andi	r24, 0x03	; 3
    1a1e:	2f ef       	ldi	r18, 0xFF	; 255
    1a20:	82 9f       	mul	r24, r18
    1a22:	c0 01       	movw	r24, r0
    1a24:	11 24       	eor	r1, r1
    1a26:	38 9f       	mul	r19, r24
    1a28:	b0 01       	movw	r22, r0
    1a2a:	39 9f       	mul	r19, r25
    1a2c:	70 0d       	add	r23, r0
    1a2e:	11 24       	eor	r1, r1
    1a30:	9b 01       	movw	r18, r22
    1a32:	a3 e8       	ldi	r26, 0x83	; 131
    1a34:	bd e2       	ldi	r27, 0x2D	; 45
    1a36:	8a d6       	rcall	.+3348   	; 0x274c <__umulhisi3>
    1a38:	96 95       	lsr	r25
    1a3a:	87 95       	ror	r24
    1a3c:	92 95       	swap	r25
    1a3e:	82 95       	swap	r24
    1a40:	8f 70       	andi	r24, 0x0F	; 15
    1a42:	89 27       	eor	r24, r25
    1a44:	9f 70       	andi	r25, 0x0F	; 15
    1a46:	89 27       	eor	r24, r25
    1a48:	8f 3f       	cpi	r24, 0xFF	; 255
    1a4a:	91 05       	cpc	r25, r1
    1a4c:	11 f0       	breq	.+4      	; 0x1a52 <process_incoming_frame+0x6e>
    1a4e:	08 f0       	brcs	.+2      	; 0x1a52 <process_incoming_frame+0x6e>
    1a50:	8f ef       	ldi	r24, 0xFF	; 255
    1a52:	80 83       	st	Z, r24
    1a54:	5a 83       	std	Y+2, r21	; 0x02
    1a56:	49 83       	std	Y+1, r20	; 0x01
    1a58:	ce 01       	movw	r24, r28
    1a5a:	2e d6       	rcall	.+3164   	; 0x26b8 <tal_rx_frame_cb>
    1a5c:	df 91       	pop	r29
    1a5e:	cf 91       	pop	r28
    1a60:	08 95       	ret

00001a62 <tal_rx_enable>:
    1a62:	90 91 70 05 	lds	r25, 0x0570	; 0x800570 <tal_state>
    1a66:	91 11       	cpse	r25, r1
    1a68:	16 c0       	rjmp	.+44     	; 0x1a96 <tal_rx_enable+0x34>
    1a6a:	88 30       	cpi	r24, 0x08	; 8
    1a6c:	29 f4       	brne	.+10     	; 0x1a78 <tal_rx_enable+0x16>
    1a6e:	16 d9       	rcall	.-3540   	; 0xc9c <set_trx_state>
    1a70:	10 92 44 05 	sts	0x0544, r1	; 0x800544 <tal_rx_on_required>
    1a74:	88 e0       	ldi	r24, 0x08	; 8
    1a76:	08 95       	ret
    1a78:	80 91 72 04 	lds	r24, 0x0472	; 0x800472 <tal_rx_buffer>
    1a7c:	90 91 73 04 	lds	r25, 0x0473	; 0x800473 <tal_rx_buffer+0x1>
    1a80:	89 2b       	or	r24, r25
    1a82:	21 f0       	breq	.+8      	; 0x1a8c <tal_rx_enable+0x2a>
    1a84:	86 e1       	ldi	r24, 0x16	; 22
    1a86:	0a d9       	rcall	.-3564   	; 0xc9c <set_trx_state>
    1a88:	86 e0       	ldi	r24, 0x06	; 6
    1a8a:	08 95       	ret
    1a8c:	81 e0       	ldi	r24, 0x01	; 1
    1a8e:	80 93 44 05 	sts	0x0544, r24	; 0x800544 <tal_rx_on_required>
    1a92:	86 e0       	ldi	r24, 0x06	; 6
    1a94:	08 95       	ret
    1a96:	86 e8       	ldi	r24, 0x86	; 134
    1a98:	08 95       	ret

00001a9a <__portable_avr_delay_cycles>:
    1a9a:	04 c0       	rjmp	.+8      	; 0x1aa4 <__portable_avr_delay_cycles+0xa>
    1a9c:	61 50       	subi	r22, 0x01	; 1
    1a9e:	71 09       	sbc	r23, r1
    1aa0:	81 09       	sbc	r24, r1
    1aa2:	91 09       	sbc	r25, r1
    1aa4:	61 15       	cp	r22, r1
    1aa6:	71 05       	cpc	r23, r1
    1aa8:	81 05       	cpc	r24, r1
    1aaa:	91 05       	cpc	r25, r1
    1aac:	b9 f7       	brne	.-18     	; 0x1a9c <__portable_avr_delay_cycles+0x2>
    1aae:	08 95       	ret

00001ab0 <tx_done_handling>:
    1ab0:	10 92 70 05 	sts	0x0570, r1	; 0x800570 <tal_state>
    1ab4:	80 91 7c 04 	lds	r24, 0x047C	; 0x80047c <trx_trac_status>
    1ab8:	83 30       	cpi	r24, 0x03	; 3
    1aba:	69 f0       	breq	.+26     	; 0x1ad6 <tx_done_handling+0x26>
    1abc:	28 f4       	brcc	.+10     	; 0x1ac8 <tx_done_handling+0x18>
    1abe:	88 23       	and	r24, r24
    1ac0:	91 f0       	breq	.+36     	; 0x1ae6 <tx_done_handling+0x36>
    1ac2:	81 30       	cpi	r24, 0x01	; 1
    1ac4:	31 f0       	breq	.+12     	; 0x1ad2 <tx_done_handling+0x22>
    1ac6:	0d c0       	rjmp	.+26     	; 0x1ae2 <tx_done_handling+0x32>
    1ac8:	85 30       	cpi	r24, 0x05	; 5
    1aca:	39 f0       	breq	.+14     	; 0x1ada <tx_done_handling+0x2a>
    1acc:	87 30       	cpi	r24, 0x07	; 7
    1ace:	39 f0       	breq	.+14     	; 0x1ade <tx_done_handling+0x2e>
    1ad0:	08 c0       	rjmp	.+16     	; 0x1ae2 <tx_done_handling+0x32>
    1ad2:	87 e8       	ldi	r24, 0x87	; 135
    1ad4:	09 c0       	rjmp	.+18     	; 0x1ae8 <tx_done_handling+0x38>
    1ad6:	81 ee       	ldi	r24, 0xE1	; 225
    1ad8:	07 c0       	rjmp	.+14     	; 0x1ae8 <tx_done_handling+0x38>
    1ada:	89 ee       	ldi	r24, 0xE9	; 233
    1adc:	05 c0       	rjmp	.+10     	; 0x1ae8 <tx_done_handling+0x38>
    1ade:	85 e8       	ldi	r24, 0x85	; 133
    1ae0:	03 c0       	rjmp	.+6      	; 0x1ae8 <tx_done_handling+0x38>
    1ae2:	85 e8       	ldi	r24, 0x85	; 133
    1ae4:	01 c0       	rjmp	.+2      	; 0x1ae8 <tx_done_handling+0x38>
    1ae6:	80 e0       	ldi	r24, 0x00	; 0
    1ae8:	60 91 4a 05 	lds	r22, 0x054A	; 0x80054a <mac_frame_ptr>
    1aec:	70 91 4b 05 	lds	r23, 0x054B	; 0x80054b <mac_frame_ptr+0x1>
    1af0:	e0 c5       	rjmp	.+3008   	; 0x26b2 <tal_tx_frame_done_cb>
    1af2:	08 95       	ret

00001af4 <send_frame>:
    1af4:	1f 93       	push	r17
    1af6:	cf 93       	push	r28
    1af8:	df 93       	push	r29
    1afa:	1f 92       	push	r1
    1afc:	cd b7       	in	r28, 0x3d	; 61
    1afe:	de b7       	in	r29, 0x3e	; 62
    1b00:	18 2f       	mov	r17, r24
    1b02:	66 23       	and	r22, r22
    1b04:	81 f0       	breq	.+32     	; 0x1b26 <send_frame+0x32>
    1b06:	ec e6       	ldi	r30, 0x6C	; 108
    1b08:	f1 e0       	ldi	r31, 0x01	; 1
    1b0a:	20 81       	ld	r18, Z
    1b0c:	90 91 68 05 	lds	r25, 0x0568	; 0x800568 <tal_pib+0x1c>
    1b10:	30 e1       	ldi	r19, 0x10	; 16
    1b12:	93 9f       	mul	r25, r19
    1b14:	c0 01       	movw	r24, r0
    1b16:	11 24       	eor	r1, r1
    1b18:	92 2f       	mov	r25, r18
    1b1a:	9f 70       	andi	r25, 0x0F	; 15
    1b1c:	89 2b       	or	r24, r25
    1b1e:	80 83       	st	Z, r24
    1b20:	12 30       	cpi	r17, 0x02	; 2
    1b22:	e0 f4       	brcc	.+56     	; 0x1b5c <send_frame+0x68>
    1b24:	08 c0       	rjmp	.+16     	; 0x1b36 <send_frame+0x42>
    1b26:	ec e6       	ldi	r30, 0x6C	; 108
    1b28:	f1 e0       	ldi	r31, 0x01	; 1
    1b2a:	80 81       	ld	r24, Z
    1b2c:	8f 70       	andi	r24, 0x0F	; 15
    1b2e:	80 83       	st	Z, r24
    1b30:	12 30       	cpi	r17, 0x02	; 2
    1b32:	a0 f4       	brcc	.+40     	; 0x1b5c <send_frame+0x68>
    1b34:	0d c0       	rjmp	.+26     	; 0x1b50 <send_frame+0x5c>
    1b36:	ec e6       	ldi	r30, 0x6C	; 108
    1b38:	f1 e0       	ldi	r31, 0x01	; 1
    1b3a:	80 81       	ld	r24, Z
    1b3c:	90 91 60 05 	lds	r25, 0x0560	; 0x800560 <tal_pib+0x14>
    1b40:	99 0f       	add	r25, r25
    1b42:	9e 70       	andi	r25, 0x0E	; 14
    1b44:	81 7f       	andi	r24, 0xF1	; 241
    1b46:	89 2b       	or	r24, r25
    1b48:	80 83       	st	Z, r24
    1b4a:	10 92 6f 01 	sts	0x016F, r1	; 0x80016f <__TEXT_REGION_LENGTH__+0x70016f>
    1b4e:	1a c0       	rjmp	.+52     	; 0x1b84 <send_frame+0x90>
    1b50:	ec e6       	ldi	r30, 0x6C	; 108
    1b52:	f1 e0       	ldi	r31, 0x01	; 1
    1b54:	80 81       	ld	r24, Z
    1b56:	8e 60       	ori	r24, 0x0E	; 14
    1b58:	80 83       	st	Z, r24
    1b5a:	14 c0       	rjmp	.+40     	; 0x1b84 <send_frame+0x90>
    1b5c:	ec e4       	ldi	r30, 0x4C	; 76
    1b5e:	f5 e0       	ldi	r31, 0x05	; 5
    1b60:	83 8d       	ldd	r24, Z+27	; 0x1b
    1b62:	20 e1       	ldi	r18, 0x10	; 16
    1b64:	82 9f       	mul	r24, r18
    1b66:	c0 01       	movw	r24, r0
    1b68:	11 24       	eor	r1, r1
    1b6a:	95 89       	ldd	r25, Z+21	; 0x15
    1b6c:	89 2b       	or	r24, r25
    1b6e:	80 93 6f 01 	sts	0x016F, r24	; 0x80016f <__TEXT_REGION_LENGTH__+0x70016f>
    1b72:	ac e6       	ldi	r26, 0x6C	; 108
    1b74:	b1 e0       	ldi	r27, 0x01	; 1
    1b76:	8c 91       	ld	r24, X
    1b78:	94 89       	ldd	r25, Z+20	; 0x14
    1b7a:	99 0f       	add	r25, r25
    1b7c:	9e 70       	andi	r25, 0x0E	; 14
    1b7e:	81 7f       	andi	r24, 0xF1	; 241
    1b80:	89 2b       	or	r24, r25
    1b82:	8c 93       	st	X, r24
    1b84:	89 e1       	ldi	r24, 0x19	; 25
    1b86:	8a d8       	rcall	.-3820   	; 0xc9c <set_trx_state>
    1b88:	89 31       	cpi	r24, 0x19	; 25
    1b8a:	e1 f7       	brne	.-8      	; 0x1b84 <send_frame+0x90>
    1b8c:	11 30       	cpi	r17, 0x01	; 1
    1b8e:	a1 f4       	brne	.+40     	; 0x1bb8 <send_frame+0xc4>
    1b90:	80 91 6c 05 	lds	r24, 0x056C	; 0x80056c <last_frame_length>
    1b94:	83 31       	cpi	r24, 0x13	; 19
    1b96:	40 f0       	brcs	.+16     	; 0x1ba8 <send_frame+0xb4>
    1b98:	61 e0       	ldi	r22, 0x01	; 1
    1b9a:	73 e0       	ldi	r23, 0x03	; 3
    1b9c:	80 e0       	ldi	r24, 0x00	; 0
    1b9e:	90 e0       	ldi	r25, 0x00	; 0
    1ba0:	7c df       	rcall	.-264    	; 0x1a9a <__portable_avr_delay_cycles>
    1ba2:	10 92 6c 05 	sts	0x056C, r1	; 0x80056c <last_frame_length>
    1ba6:	0d c0       	rjmp	.+26     	; 0x1bc2 <send_frame+0xce>
    1ba8:	6b ea       	ldi	r22, 0xAB	; 171
    1baa:	70 e0       	ldi	r23, 0x00	; 0
    1bac:	80 e0       	ldi	r24, 0x00	; 0
    1bae:	90 e0       	ldi	r25, 0x00	; 0
    1bb0:	74 df       	rcall	.-280    	; 0x1a9a <__portable_avr_delay_cycles>
    1bb2:	10 92 6c 05 	sts	0x056C, r1	; 0x80056c <last_frame_length>
    1bb6:	05 c0       	rjmp	.+10     	; 0x1bc2 <send_frame+0xce>
    1bb8:	6c e0       	ldi	r22, 0x0C	; 12
    1bba:	70 e0       	ldi	r23, 0x00	; 0
    1bbc:	80 e0       	ldi	r24, 0x00	; 0
    1bbe:	90 e0       	ldi	r25, 0x00	; 0
    1bc0:	6c df       	rcall	.-296    	; 0x1a9a <__portable_avr_delay_cycles>
    1bc2:	8f b7       	in	r24, 0x3f	; 63
    1bc4:	89 83       	std	Y+1, r24	; 0x01
    1bc6:	f8 94       	cli
    1bc8:	19 81       	ldd	r17, Y+1	; 0x01
    1bca:	e9 e3       	ldi	r30, 0x39	; 57
    1bcc:	f1 e0       	ldi	r31, 0x01	; 1
    1bce:	80 81       	ld	r24, Z
    1bd0:	82 60       	ori	r24, 0x02	; 2
    1bd2:	80 83       	st	Z, r24
    1bd4:	00 00       	nop
    1bd6:	00 00       	nop
    1bd8:	80 81       	ld	r24, Z
    1bda:	8d 7f       	andi	r24, 0xFD	; 253
    1bdc:	80 83       	st	Z, r24
    1bde:	60 91 6d 05 	lds	r22, 0x056D	; 0x80056d <tal_frame_to_tx>
    1be2:	70 91 6e 05 	lds	r23, 0x056E	; 0x80056e <tal_frame_to_tx+0x1>
    1be6:	fb 01       	movw	r30, r22
    1be8:	40 81       	ld	r20, Z
    1bea:	50 e0       	ldi	r21, 0x00	; 0
    1bec:	41 50       	subi	r20, 0x01	; 1
    1bee:	51 09       	sbc	r21, r1
    1bf0:	80 e8       	ldi	r24, 0x80	; 128
    1bf2:	91 e0       	ldi	r25, 0x01	; 1
    1bf4:	31 d6       	rcall	.+3170   	; 0x2858 <memcpy>
    1bf6:	81 e0       	ldi	r24, 0x01	; 1
    1bf8:	80 93 70 05 	sts	0x0570, r24	; 0x800570 <tal_state>
    1bfc:	1f bf       	out	0x3f, r17	; 63
    1bfe:	0f 90       	pop	r0
    1c00:	df 91       	pop	r29
    1c02:	cf 91       	pop	r28
    1c04:	1f 91       	pop	r17
    1c06:	08 95       	ret

00001c08 <tal_tx_frame>:
    1c08:	fc 01       	movw	r30, r24
    1c0a:	90 91 70 05 	lds	r25, 0x0570	; 0x800570 <tal_state>
    1c0e:	91 11       	cpse	r25, r1
    1c10:	16 c0       	rjmp	.+44     	; 0x1c3e <tal_tx_frame+0x36>
    1c12:	f0 93 4b 05 	sts	0x054B, r31	; 0x80054b <mac_frame_ptr+0x1>
    1c16:	e0 93 4a 05 	sts	0x054A, r30	; 0x80054a <mac_frame_ptr>
    1c1a:	07 80       	ldd	r0, Z+7	; 0x07
    1c1c:	f0 85       	ldd	r31, Z+8	; 0x08
    1c1e:	e0 2d       	mov	r30, r0
    1c20:	f0 93 6e 05 	sts	0x056E, r31	; 0x80056e <tal_frame_to_tx+0x1>
    1c24:	e0 93 6d 05 	sts	0x056D, r30	; 0x80056d <tal_frame_to_tx>
    1c28:	80 81       	ld	r24, Z
    1c2a:	81 50       	subi	r24, 0x01	; 1
    1c2c:	80 93 6c 05 	sts	0x056C, r24	; 0x80056c <last_frame_length>
    1c30:	ef 2b       	or	r30, r31
    1c32:	39 f0       	breq	.+14     	; 0x1c42 <tal_tx_frame+0x3a>
    1c34:	86 2f       	mov	r24, r22
    1c36:	64 2f       	mov	r22, r20
    1c38:	5d df       	rcall	.-326    	; 0x1af4 <send_frame>
    1c3a:	80 e0       	ldi	r24, 0x00	; 0
    1c3c:	08 95       	ret
    1c3e:	86 e8       	ldi	r24, 0x86	; 134
    1c40:	08 95       	ret
    1c42:	88 ee       	ldi	r24, 0xE8	; 232
    1c44:	08 95       	ret

00001c46 <handle_tx_end_irq>:
    1c46:	80 91 70 05 	lds	r24, 0x0570	; 0x800570 <tal_state>
    1c4a:	81 30       	cpi	r24, 0x01	; 1
    1c4c:	c1 f4       	brne	.+48     	; 0x1c7e <handle_tx_end_irq+0x38>
    1c4e:	80 91 42 01 	lds	r24, 0x0142	; 0x800142 <__TEXT_REGION_LENGTH__+0x700142>
    1c52:	82 95       	swap	r24
    1c54:	86 95       	lsr	r24
    1c56:	87 70       	andi	r24, 0x07	; 7
    1c58:	80 93 7c 04 	sts	0x047C, r24	; 0x80047c <trx_trac_status>
    1c5c:	82 e0       	ldi	r24, 0x02	; 2
    1c5e:	80 93 70 05 	sts	0x0570, r24	; 0x800570 <tal_state>
    1c62:	80 91 72 04 	lds	r24, 0x0472	; 0x800472 <tal_rx_buffer>
    1c66:	90 91 73 04 	lds	r25, 0x0473	; 0x800473 <tal_rx_buffer+0x1>
    1c6a:	89 2b       	or	r24, r25
    1c6c:	31 f4       	brne	.+12     	; 0x1c7a <handle_tx_end_irq+0x34>
    1c6e:	89 e0       	ldi	r24, 0x09	; 9
    1c70:	15 d8       	rcall	.-4054   	; 0xc9c <set_trx_state>
    1c72:	81 e0       	ldi	r24, 0x01	; 1
    1c74:	80 93 44 05 	sts	0x0544, r24	; 0x800544 <tal_rx_on_required>
    1c78:	08 95       	ret
    1c7a:	86 e1       	ldi	r24, 0x16	; 22
    1c7c:	0f c8       	rjmp	.-4066   	; 0xc9c <set_trx_state>
    1c7e:	08 95       	ret

00001c80 <tal_ant_div_config>:
    1c80:	88 23       	and	r24, r24
    1c82:	29 f1       	breq	.+74     	; 0x1cce <tal_ant_div_config+0x4e>
    1c84:	ed e4       	ldi	r30, 0x4D	; 77
    1c86:	f1 e0       	ldi	r31, 0x01	; 1
    1c88:	80 81       	ld	r24, Z
    1c8a:	8c 7f       	andi	r24, 0xFC	; 252
    1c8c:	80 83       	st	Z, r24
    1c8e:	80 81       	ld	r24, Z
    1c90:	88 60       	ori	r24, 0x08	; 8
    1c92:	80 83       	st	Z, r24
    1c94:	aa e4       	ldi	r26, 0x4A	; 74
    1c96:	b1 e0       	ldi	r27, 0x01	; 1
    1c98:	8c 91       	ld	r24, X
    1c9a:	80 7f       	andi	r24, 0xF0	; 240
    1c9c:	83 60       	ori	r24, 0x03	; 3
    1c9e:	8c 93       	st	X, r24
    1ca0:	80 81       	ld	r24, Z
    1ca2:	84 60       	ori	r24, 0x04	; 4
    1ca4:	80 83       	st	Z, r24
    1ca6:	80 81       	ld	r24, Z
    1ca8:	83 70       	andi	r24, 0x03	; 3
    1caa:	09 f0       	breq	.+2      	; 0x1cae <tal_ant_div_config+0x2e>
    1cac:	54 c0       	rjmp	.+168    	; 0x1d56 <tal_ant_div_config+0xd6>
    1cae:	80 91 4d 01 	lds	r24, 0x014D	; 0x80014d <__TEXT_REGION_LENGTH__+0x70014d>
    1cb2:	83 ff       	sbrs	r24, 3
    1cb4:	52 c0       	rjmp	.+164    	; 0x1d5a <tal_ant_div_config+0xda>
    1cb6:	80 91 4d 01 	lds	r24, 0x014D	; 0x80014d <__TEXT_REGION_LENGTH__+0x70014d>
    1cba:	82 ff       	sbrs	r24, 2
    1cbc:	50 c0       	rjmp	.+160    	; 0x1d5e <tal_ant_div_config+0xde>
    1cbe:	80 91 4a 01 	lds	r24, 0x014A	; 0x80014a <__TEXT_REGION_LENGTH__+0x70014a>
    1cc2:	8f 70       	andi	r24, 0x0F	; 15
    1cc4:	83 30       	cpi	r24, 0x03	; 3
    1cc6:	09 f0       	breq	.+2      	; 0x1cca <tal_ant_div_config+0x4a>
    1cc8:	4c c0       	rjmp	.+152    	; 0x1d62 <tal_ant_div_config+0xe2>
    1cca:	80 e0       	ldi	r24, 0x00	; 0
    1ccc:	08 95       	ret
    1cce:	ed e4       	ldi	r30, 0x4D	; 77
    1cd0:	f1 e0       	ldi	r31, 0x01	; 1
    1cd2:	80 81       	ld	r24, Z
    1cd4:	87 7f       	andi	r24, 0xF7	; 247
    1cd6:	80 83       	st	Z, r24
    1cd8:	aa e4       	ldi	r26, 0x4A	; 74
    1cda:	b1 e0       	ldi	r27, 0x01	; 1
    1cdc:	8c 91       	ld	r24, X
    1cde:	80 7f       	andi	r24, 0xF0	; 240
    1ce0:	87 60       	ori	r24, 0x07	; 7
    1ce2:	8c 93       	st	X, r24
    1ce4:	80 81       	ld	r24, Z
    1ce6:	84 60       	ori	r24, 0x04	; 4
    1ce8:	80 83       	st	Z, r24
    1cea:	61 30       	cpi	r22, 0x01	; 1
    1cec:	31 f4       	brne	.+12     	; 0x1cfa <tal_ant_div_config+0x7a>
    1cee:	80 81       	ld	r24, Z
    1cf0:	8c 7f       	andi	r24, 0xFC	; 252
    1cf2:	81 60       	ori	r24, 0x01	; 1
    1cf4:	80 83       	st	Z, r24
    1cf6:	85 e8       	ldi	r24, 0x85	; 133
    1cf8:	17 c0       	rjmp	.+46     	; 0x1d28 <tal_ant_div_config+0xa8>
    1cfa:	62 30       	cpi	r22, 0x02	; 2
    1cfc:	41 f4       	brne	.+16     	; 0x1d0e <tal_ant_div_config+0x8e>
    1cfe:	ed e4       	ldi	r30, 0x4D	; 77
    1d00:	f1 e0       	ldi	r31, 0x01	; 1
    1d02:	80 81       	ld	r24, Z
    1d04:	8c 7f       	andi	r24, 0xFC	; 252
    1d06:	82 60       	ori	r24, 0x02	; 2
    1d08:	80 83       	st	Z, r24
    1d0a:	85 e8       	ldi	r24, 0x85	; 133
    1d0c:	0d c0       	rjmp	.+26     	; 0x1d28 <tal_ant_div_config+0xa8>
    1d0e:	66 23       	and	r22, r22
    1d10:	11 f0       	breq	.+4      	; 0x1d16 <tal_ant_div_config+0x96>
    1d12:	63 30       	cpi	r22, 0x03	; 3
    1d14:	41 f4       	brne	.+16     	; 0x1d26 <tal_ant_div_config+0xa6>
    1d16:	ed e4       	ldi	r30, 0x4D	; 77
    1d18:	f1 e0       	ldi	r31, 0x01	; 1
    1d1a:	80 81       	ld	r24, Z
    1d1c:	8c 7f       	andi	r24, 0xFC	; 252
    1d1e:	80 83       	st	Z, r24
    1d20:	85 e8       	ldi	r24, 0x85	; 133
    1d22:	60 e0       	ldi	r22, 0x00	; 0
    1d24:	01 c0       	rjmp	.+2      	; 0x1d28 <tal_ant_div_config+0xa8>
    1d26:	88 ee       	ldi	r24, 0xE8	; 232
    1d28:	20 91 4d 01 	lds	r18, 0x014D	; 0x80014d <__TEXT_REGION_LENGTH__+0x70014d>
    1d2c:	23 70       	andi	r18, 0x03	; 3
    1d2e:	30 e0       	ldi	r19, 0x00	; 0
    1d30:	70 e0       	ldi	r23, 0x00	; 0
    1d32:	26 17       	cp	r18, r22
    1d34:	37 07       	cpc	r19, r23
    1d36:	b9 f4       	brne	.+46     	; 0x1d66 <tal_ant_div_config+0xe6>
    1d38:	90 91 4d 01 	lds	r25, 0x014D	; 0x80014d <__TEXT_REGION_LENGTH__+0x70014d>
    1d3c:	93 fd       	sbrc	r25, 3
    1d3e:	15 c0       	rjmp	.+42     	; 0x1d6a <tal_ant_div_config+0xea>
    1d40:	90 91 4d 01 	lds	r25, 0x014D	; 0x80014d <__TEXT_REGION_LENGTH__+0x70014d>
    1d44:	92 fd       	sbrc	r25, 2
    1d46:	13 c0       	rjmp	.+38     	; 0x1d6e <tal_ant_div_config+0xee>
    1d48:	90 91 4a 01 	lds	r25, 0x014A	; 0x80014a <__TEXT_REGION_LENGTH__+0x70014a>
    1d4c:	9f 70       	andi	r25, 0x0F	; 15
    1d4e:	93 30       	cpi	r25, 0x03	; 3
    1d50:	79 f4       	brne	.+30     	; 0x1d70 <tal_ant_div_config+0xf0>
    1d52:	80 e0       	ldi	r24, 0x00	; 0
    1d54:	08 95       	ret
    1d56:	85 e8       	ldi	r24, 0x85	; 133
    1d58:	08 95       	ret
    1d5a:	85 e8       	ldi	r24, 0x85	; 133
    1d5c:	08 95       	ret
    1d5e:	85 e8       	ldi	r24, 0x85	; 133
    1d60:	08 95       	ret
    1d62:	85 e8       	ldi	r24, 0x85	; 133
    1d64:	08 95       	ret
    1d66:	85 e8       	ldi	r24, 0x85	; 133
    1d68:	08 95       	ret
    1d6a:	85 e8       	ldi	r24, 0x85	; 133
    1d6c:	08 95       	ret
    1d6e:	85 e8       	ldi	r24, 0x85	; 133
    1d70:	08 95       	ret

00001d72 <tfa_pib_set>:
    1d72:	81 11       	cpse	r24, r1
    1d74:	24 c0       	rjmp	.+72     	; 0x1dbe <tfa_pib_set+0x4c>
    1d76:	fb 01       	movw	r30, r22
    1d78:	80 81       	ld	r24, Z
    1d7a:	80 3d       	cpi	r24, 0xD0	; 208
    1d7c:	2c f0       	brlt	.+10     	; 0x1d88 <tfa_pib_set+0x16>
    1d7e:	8f ec       	ldi	r24, 0xCF	; 207
    1d80:	80 93 7d 04 	sts	0x047D, r24	; 0x80047d <tfa_pib_rx_sens>
    1d84:	6f e0       	ldi	r22, 0x0F	; 15
    1d86:	12 c0       	rjmp	.+36     	; 0x1dac <tfa_pib_set+0x3a>
    1d88:	87 3a       	cpi	r24, 0xA7	; 167
    1d8a:	2c f4       	brge	.+10     	; 0x1d96 <tfa_pib_set+0x24>
    1d8c:	86 ea       	ldi	r24, 0xA6	; 166
    1d8e:	80 93 7d 04 	sts	0x047D, r24	; 0x80047d <tfa_pib_rx_sens>
    1d92:	60 e0       	ldi	r22, 0x00	; 0
    1d94:	0b c0       	rjmp	.+22     	; 0x1dac <tfa_pib_set+0x3a>
    1d96:	80 93 7d 04 	sts	0x047D, r24	; 0x80047d <tfa_pib_rx_sens>
    1d9a:	08 2e       	mov	r0, r24
    1d9c:	00 0c       	add	r0, r0
    1d9e:	99 0b       	sbc	r25, r25
    1da0:	86 5a       	subi	r24, 0xA6	; 166
    1da2:	9f 4f       	sbci	r25, 0xFF	; 255
    1da4:	63 e0       	ldi	r22, 0x03	; 3
    1da6:	70 e0       	ldi	r23, 0x00	; 0
    1da8:	b6 d4       	rcall	.+2412   	; 0x2716 <__divmodhi4>
    1daa:	6f 5f       	subi	r22, 0xFF	; 255
    1dac:	e5 e5       	ldi	r30, 0x55	; 85
    1dae:	f1 e0       	ldi	r31, 0x01	; 1
    1db0:	80 81       	ld	r24, Z
    1db2:	80 7f       	andi	r24, 0xF0	; 240
    1db4:	6f 70       	andi	r22, 0x0F	; 15
    1db6:	68 2b       	or	r22, r24
    1db8:	60 83       	st	Z, r22
    1dba:	80 e0       	ldi	r24, 0x00	; 0
    1dbc:	08 95       	ret
    1dbe:	84 ef       	ldi	r24, 0xF4	; 244
    1dc0:	08 95       	ret

00001dc2 <tfa_init>:
    1dc2:	86 ea       	ldi	r24, 0xA6	; 166
    1dc4:	80 93 7d 04 	sts	0x047D, r24	; 0x80047d <tfa_pib_rx_sens>
    1dc8:	6d e7       	ldi	r22, 0x7D	; 125
    1dca:	74 e0       	ldi	r23, 0x04	; 4
    1dcc:	80 e0       	ldi	r24, 0x00	; 0
    1dce:	d1 df       	rcall	.-94     	; 0x1d72 <tfa_pib_set>
    1dd0:	61 e0       	ldi	r22, 0x01	; 1
    1dd2:	80 e0       	ldi	r24, 0x00	; 0
    1dd4:	0e 94 67 03 	call	0x6ce	; 0x6ce <sysclk_enable_module>
    1dd8:	60 e1       	ldi	r22, 0x10	; 16
    1dda:	80 e0       	ldi	r24, 0x00	; 0
    1ddc:	0e 94 67 03 	call	0x6ce	; 0x6ce <sysclk_enable_module>
    1de0:	80 e0       	ldi	r24, 0x00	; 0
    1de2:	08 95       	ret

00001de4 <tc_ovf_callback>:
    1de4:	0c 94 9a 01 	jmp	0x334	; 0x334 <tmr_ovf_callback>
    1de8:	08 95       	ret

00001dea <tc_cca_callback>:
    1dea:	0c 94 d2 01 	jmp	0x3a4	; 0x3a4 <tmr_cca_callback>
    1dee:	08 95       	ret

00001df0 <tmr_read_count>:
    1df0:	80 91 84 00 	lds	r24, 0x0084	; 0x800084 <__TEXT_REGION_LENGTH__+0x700084>
    1df4:	90 91 85 00 	lds	r25, 0x0085	; 0x800085 <__TEXT_REGION_LENGTH__+0x700085>
    1df8:	08 95       	ret

00001dfa <tmr_disable_cc_interrupt>:
    1dfa:	ef e6       	ldi	r30, 0x6F	; 111
    1dfc:	f0 e0       	ldi	r31, 0x00	; 0
    1dfe:	80 81       	ld	r24, Z
    1e00:	8d 7f       	andi	r24, 0xFD	; 253
    1e02:	80 83       	st	Z, r24
    1e04:	b1 9a       	sbi	0x16, 1	; 22
    1e06:	08 95       	ret

00001e08 <tmr_enable_cc_interrupt>:
    1e08:	b1 9a       	sbi	0x16, 1	; 22
    1e0a:	ef e6       	ldi	r30, 0x6F	; 111
    1e0c:	f0 e0       	ldi	r31, 0x00	; 0
    1e0e:	80 81       	ld	r24, Z
    1e10:	82 60       	ori	r24, 0x02	; 2
    1e12:	80 83       	st	Z, r24
    1e14:	08 95       	ret

00001e16 <tmr_disable_ovf_interrupt>:
    1e16:	ef e6       	ldi	r30, 0x6F	; 111
    1e18:	f0 e0       	ldi	r31, 0x00	; 0
    1e1a:	80 81       	ld	r24, Z
    1e1c:	81 60       	ori	r24, 0x01	; 1
    1e1e:	80 83       	st	Z, r24
    1e20:	b0 9a       	sbi	0x16, 0	; 22
    1e22:	08 95       	ret

00001e24 <tmr_stop>:
    1e24:	80 e8       	ldi	r24, 0x80	; 128
    1e26:	90 e0       	ldi	r25, 0x00	; 0
    1e28:	82 c3       	rjmp	.+1796   	; 0x252e <tc_disable>
    1e2a:	08 95       	ret

00001e2c <tmr_write_cmpreg>:
    1e2c:	e9 e8       	ldi	r30, 0x89	; 137
    1e2e:	f0 e0       	ldi	r31, 0x00	; 0
    1e30:	20 81       	ld	r18, Z
    1e32:	92 2b       	or	r25, r18
    1e34:	90 83       	st	Z, r25
    1e36:	e8 e8       	ldi	r30, 0x88	; 136
    1e38:	f0 e0       	ldi	r31, 0x00	; 0
    1e3a:	90 81       	ld	r25, Z
    1e3c:	89 2b       	or	r24, r25
    1e3e:	80 83       	st	Z, r24
    1e40:	08 95       	ret

00001e42 <save_cpu_interrupt>:
    1e42:	cf 93       	push	r28
    1e44:	df 93       	push	r29
    1e46:	1f 92       	push	r1
    1e48:	cd b7       	in	r28, 0x3d	; 61
    1e4a:	de b7       	in	r29, 0x3e	; 62
    1e4c:	8f b7       	in	r24, 0x3f	; 63
    1e4e:	89 83       	std	Y+1, r24	; 0x01
    1e50:	f8 94       	cli
    1e52:	89 81       	ldd	r24, Y+1	; 0x01
    1e54:	0f 90       	pop	r0
    1e56:	df 91       	pop	r29
    1e58:	cf 91       	pop	r28
    1e5a:	08 95       	ret

00001e5c <restore_cpu_interrupt>:
    1e5c:	8f bf       	out	0x3f, r24	; 63
    1e5e:	08 95       	ret

00001e60 <tmr_init>:
    1e60:	cf 93       	push	r28
    1e62:	df 93       	push	r29
    1e64:	80 e8       	ldi	r24, 0x80	; 128
    1e66:	90 e0       	ldi	r25, 0x00	; 0
    1e68:	eb d2       	rcall	.+1494   	; 0x2440 <tc_enable>
    1e6a:	62 ef       	ldi	r22, 0xF2	; 242
    1e6c:	7e e0       	ldi	r23, 0x0E	; 14
    1e6e:	80 e8       	ldi	r24, 0x80	; 128
    1e70:	90 e0       	ldi	r25, 0x00	; 0
    1e72:	d4 d3       	rcall	.+1960   	; 0x261c <tc_set_overflow_interrupt_callback>
    1e74:	cf e6       	ldi	r28, 0x6F	; 111
    1e76:	d0 e0       	ldi	r29, 0x00	; 0
    1e78:	88 81       	ld	r24, Y
    1e7a:	81 60       	ori	r24, 0x01	; 1
    1e7c:	88 83       	st	Y, r24
    1e7e:	65 ef       	ldi	r22, 0xF5	; 245
    1e80:	7e e0       	ldi	r23, 0x0E	; 14
    1e82:	80 e8       	ldi	r24, 0x80	; 128
    1e84:	90 e0       	ldi	r25, 0x00	; 0
    1e86:	ea d3       	rcall	.+2004   	; 0x265c <tc_set_compa_interrupt_callback>
    1e88:	88 81       	ld	r24, Y
    1e8a:	8d 7f       	andi	r24, 0xFD	; 253
    1e8c:	88 83       	st	Y, r24
    1e8e:	e1 e8       	ldi	r30, 0x81	; 129
    1e90:	f0 e0       	ldi	r31, 0x00	; 0
    1e92:	80 81       	ld	r24, Z
    1e94:	81 60       	ori	r24, 0x01	; 1
    1e96:	80 83       	st	Z, r24
    1e98:	88 e0       	ldi	r24, 0x08	; 8
    1e9a:	df 91       	pop	r29
    1e9c:	cf 91       	pop	r28
    1e9e:	08 95       	ret

00001ea0 <__vector_20>:
    1ea0:	1f 92       	push	r1
    1ea2:	0f 92       	push	r0
    1ea4:	0f b6       	in	r0, 0x3f	; 63
    1ea6:	0f 92       	push	r0
    1ea8:	11 24       	eor	r1, r1
    1eaa:	0b b6       	in	r0, 0x3b	; 59
    1eac:	0f 92       	push	r0
    1eae:	2f 93       	push	r18
    1eb0:	3f 93       	push	r19
    1eb2:	4f 93       	push	r20
    1eb4:	5f 93       	push	r21
    1eb6:	6f 93       	push	r22
    1eb8:	7f 93       	push	r23
    1eba:	8f 93       	push	r24
    1ebc:	9f 93       	push	r25
    1ebe:	af 93       	push	r26
    1ec0:	bf 93       	push	r27
    1ec2:	ef 93       	push	r30
    1ec4:	ff 93       	push	r31
    1ec6:	e0 91 9c 04 	lds	r30, 0x049C	; 0x80049c <tc_tccr1_ovf_callback>
    1eca:	f0 91 9d 04 	lds	r31, 0x049D	; 0x80049d <tc_tccr1_ovf_callback+0x1>
    1ece:	30 97       	sbiw	r30, 0x00	; 0
    1ed0:	09 f0       	breq	.+2      	; 0x1ed4 <__vector_20+0x34>
    1ed2:	19 95       	eicall
    1ed4:	ff 91       	pop	r31
    1ed6:	ef 91       	pop	r30
    1ed8:	bf 91       	pop	r27
    1eda:	af 91       	pop	r26
    1edc:	9f 91       	pop	r25
    1ede:	8f 91       	pop	r24
    1ee0:	7f 91       	pop	r23
    1ee2:	6f 91       	pop	r22
    1ee4:	5f 91       	pop	r21
    1ee6:	4f 91       	pop	r20
    1ee8:	3f 91       	pop	r19
    1eea:	2f 91       	pop	r18
    1eec:	0f 90       	pop	r0
    1eee:	0b be       	out	0x3b, r0	; 59
    1ef0:	0f 90       	pop	r0
    1ef2:	0f be       	out	0x3f, r0	; 63
    1ef4:	0f 90       	pop	r0
    1ef6:	1f 90       	pop	r1
    1ef8:	18 95       	reti

00001efa <__vector_17>:
    1efa:	1f 92       	push	r1
    1efc:	0f 92       	push	r0
    1efe:	0f b6       	in	r0, 0x3f	; 63
    1f00:	0f 92       	push	r0
    1f02:	11 24       	eor	r1, r1
    1f04:	0b b6       	in	r0, 0x3b	; 59
    1f06:	0f 92       	push	r0
    1f08:	2f 93       	push	r18
    1f0a:	3f 93       	push	r19
    1f0c:	4f 93       	push	r20
    1f0e:	5f 93       	push	r21
    1f10:	6f 93       	push	r22
    1f12:	7f 93       	push	r23
    1f14:	8f 93       	push	r24
    1f16:	9f 93       	push	r25
    1f18:	af 93       	push	r26
    1f1a:	bf 93       	push	r27
    1f1c:	ef 93       	push	r30
    1f1e:	ff 93       	push	r31
    1f20:	e0 91 9a 04 	lds	r30, 0x049A	; 0x80049a <tc_tccr1_compa_callback>
    1f24:	f0 91 9b 04 	lds	r31, 0x049B	; 0x80049b <tc_tccr1_compa_callback+0x1>
    1f28:	30 97       	sbiw	r30, 0x00	; 0
    1f2a:	09 f0       	breq	.+2      	; 0x1f2e <__vector_17+0x34>
    1f2c:	19 95       	eicall
    1f2e:	ff 91       	pop	r31
    1f30:	ef 91       	pop	r30
    1f32:	bf 91       	pop	r27
    1f34:	af 91       	pop	r26
    1f36:	9f 91       	pop	r25
    1f38:	8f 91       	pop	r24
    1f3a:	7f 91       	pop	r23
    1f3c:	6f 91       	pop	r22
    1f3e:	5f 91       	pop	r21
    1f40:	4f 91       	pop	r20
    1f42:	3f 91       	pop	r19
    1f44:	2f 91       	pop	r18
    1f46:	0f 90       	pop	r0
    1f48:	0b be       	out	0x3b, r0	; 59
    1f4a:	0f 90       	pop	r0
    1f4c:	0f be       	out	0x3f, r0	; 63
    1f4e:	0f 90       	pop	r0
    1f50:	1f 90       	pop	r1
    1f52:	18 95       	reti

00001f54 <__vector_18>:
    1f54:	1f 92       	push	r1
    1f56:	0f 92       	push	r0
    1f58:	0f b6       	in	r0, 0x3f	; 63
    1f5a:	0f 92       	push	r0
    1f5c:	11 24       	eor	r1, r1
    1f5e:	0b b6       	in	r0, 0x3b	; 59
    1f60:	0f 92       	push	r0
    1f62:	2f 93       	push	r18
    1f64:	3f 93       	push	r19
    1f66:	4f 93       	push	r20
    1f68:	5f 93       	push	r21
    1f6a:	6f 93       	push	r22
    1f6c:	7f 93       	push	r23
    1f6e:	8f 93       	push	r24
    1f70:	9f 93       	push	r25
    1f72:	af 93       	push	r26
    1f74:	bf 93       	push	r27
    1f76:	ef 93       	push	r30
    1f78:	ff 93       	push	r31
    1f7a:	e0 91 98 04 	lds	r30, 0x0498	; 0x800498 <tc_tccr1_compb_callback>
    1f7e:	f0 91 99 04 	lds	r31, 0x0499	; 0x800499 <tc_tccr1_compb_callback+0x1>
    1f82:	30 97       	sbiw	r30, 0x00	; 0
    1f84:	09 f0       	breq	.+2      	; 0x1f88 <__vector_18+0x34>
    1f86:	19 95       	eicall
    1f88:	ff 91       	pop	r31
    1f8a:	ef 91       	pop	r30
    1f8c:	bf 91       	pop	r27
    1f8e:	af 91       	pop	r26
    1f90:	9f 91       	pop	r25
    1f92:	8f 91       	pop	r24
    1f94:	7f 91       	pop	r23
    1f96:	6f 91       	pop	r22
    1f98:	5f 91       	pop	r21
    1f9a:	4f 91       	pop	r20
    1f9c:	3f 91       	pop	r19
    1f9e:	2f 91       	pop	r18
    1fa0:	0f 90       	pop	r0
    1fa2:	0b be       	out	0x3b, r0	; 59
    1fa4:	0f 90       	pop	r0
    1fa6:	0f be       	out	0x3f, r0	; 63
    1fa8:	0f 90       	pop	r0
    1faa:	1f 90       	pop	r1
    1fac:	18 95       	reti

00001fae <__vector_19>:
    1fae:	1f 92       	push	r1
    1fb0:	0f 92       	push	r0
    1fb2:	0f b6       	in	r0, 0x3f	; 63
    1fb4:	0f 92       	push	r0
    1fb6:	11 24       	eor	r1, r1
    1fb8:	0b b6       	in	r0, 0x3b	; 59
    1fba:	0f 92       	push	r0
    1fbc:	2f 93       	push	r18
    1fbe:	3f 93       	push	r19
    1fc0:	4f 93       	push	r20
    1fc2:	5f 93       	push	r21
    1fc4:	6f 93       	push	r22
    1fc6:	7f 93       	push	r23
    1fc8:	8f 93       	push	r24
    1fca:	9f 93       	push	r25
    1fcc:	af 93       	push	r26
    1fce:	bf 93       	push	r27
    1fd0:	ef 93       	push	r30
    1fd2:	ff 93       	push	r31
    1fd4:	e0 91 96 04 	lds	r30, 0x0496	; 0x800496 <tc_tccr1_compc_callback>
    1fd8:	f0 91 97 04 	lds	r31, 0x0497	; 0x800497 <tc_tccr1_compc_callback+0x1>
    1fdc:	30 97       	sbiw	r30, 0x00	; 0
    1fde:	09 f0       	breq	.+2      	; 0x1fe2 <__vector_19+0x34>
    1fe0:	19 95       	eicall
    1fe2:	ff 91       	pop	r31
    1fe4:	ef 91       	pop	r30
    1fe6:	bf 91       	pop	r27
    1fe8:	af 91       	pop	r26
    1fea:	9f 91       	pop	r25
    1fec:	8f 91       	pop	r24
    1fee:	7f 91       	pop	r23
    1ff0:	6f 91       	pop	r22
    1ff2:	5f 91       	pop	r21
    1ff4:	4f 91       	pop	r20
    1ff6:	3f 91       	pop	r19
    1ff8:	2f 91       	pop	r18
    1ffa:	0f 90       	pop	r0
    1ffc:	0b be       	out	0x3b, r0	; 59
    1ffe:	0f 90       	pop	r0
    2000:	0f be       	out	0x3f, r0	; 63
    2002:	0f 90       	pop	r0
    2004:	1f 90       	pop	r1
    2006:	18 95       	reti

00002008 <__vector_35>:
    2008:	1f 92       	push	r1
    200a:	0f 92       	push	r0
    200c:	0f b6       	in	r0, 0x3f	; 63
    200e:	0f 92       	push	r0
    2010:	11 24       	eor	r1, r1
    2012:	0b b6       	in	r0, 0x3b	; 59
    2014:	0f 92       	push	r0
    2016:	2f 93       	push	r18
    2018:	3f 93       	push	r19
    201a:	4f 93       	push	r20
    201c:	5f 93       	push	r21
    201e:	6f 93       	push	r22
    2020:	7f 93       	push	r23
    2022:	8f 93       	push	r24
    2024:	9f 93       	push	r25
    2026:	af 93       	push	r26
    2028:	bf 93       	push	r27
    202a:	ef 93       	push	r30
    202c:	ff 93       	push	r31
    202e:	e0 91 94 04 	lds	r30, 0x0494	; 0x800494 <tc_tccr3_ovf_callback>
    2032:	f0 91 95 04 	lds	r31, 0x0495	; 0x800495 <tc_tccr3_ovf_callback+0x1>
    2036:	30 97       	sbiw	r30, 0x00	; 0
    2038:	09 f0       	breq	.+2      	; 0x203c <__vector_35+0x34>
    203a:	19 95       	eicall
    203c:	ff 91       	pop	r31
    203e:	ef 91       	pop	r30
    2040:	bf 91       	pop	r27
    2042:	af 91       	pop	r26
    2044:	9f 91       	pop	r25
    2046:	8f 91       	pop	r24
    2048:	7f 91       	pop	r23
    204a:	6f 91       	pop	r22
    204c:	5f 91       	pop	r21
    204e:	4f 91       	pop	r20
    2050:	3f 91       	pop	r19
    2052:	2f 91       	pop	r18
    2054:	0f 90       	pop	r0
    2056:	0b be       	out	0x3b, r0	; 59
    2058:	0f 90       	pop	r0
    205a:	0f be       	out	0x3f, r0	; 63
    205c:	0f 90       	pop	r0
    205e:	1f 90       	pop	r1
    2060:	18 95       	reti

00002062 <__vector_32>:
    2062:	1f 92       	push	r1
    2064:	0f 92       	push	r0
    2066:	0f b6       	in	r0, 0x3f	; 63
    2068:	0f 92       	push	r0
    206a:	11 24       	eor	r1, r1
    206c:	0b b6       	in	r0, 0x3b	; 59
    206e:	0f 92       	push	r0
    2070:	2f 93       	push	r18
    2072:	3f 93       	push	r19
    2074:	4f 93       	push	r20
    2076:	5f 93       	push	r21
    2078:	6f 93       	push	r22
    207a:	7f 93       	push	r23
    207c:	8f 93       	push	r24
    207e:	9f 93       	push	r25
    2080:	af 93       	push	r26
    2082:	bf 93       	push	r27
    2084:	ef 93       	push	r30
    2086:	ff 93       	push	r31
    2088:	e0 91 92 04 	lds	r30, 0x0492	; 0x800492 <tc_tccr3_compa_callback>
    208c:	f0 91 93 04 	lds	r31, 0x0493	; 0x800493 <tc_tccr3_compa_callback+0x1>
    2090:	30 97       	sbiw	r30, 0x00	; 0
    2092:	09 f0       	breq	.+2      	; 0x2096 <__vector_32+0x34>
    2094:	19 95       	eicall
    2096:	ff 91       	pop	r31
    2098:	ef 91       	pop	r30
    209a:	bf 91       	pop	r27
    209c:	af 91       	pop	r26
    209e:	9f 91       	pop	r25
    20a0:	8f 91       	pop	r24
    20a2:	7f 91       	pop	r23
    20a4:	6f 91       	pop	r22
    20a6:	5f 91       	pop	r21
    20a8:	4f 91       	pop	r20
    20aa:	3f 91       	pop	r19
    20ac:	2f 91       	pop	r18
    20ae:	0f 90       	pop	r0
    20b0:	0b be       	out	0x3b, r0	; 59
    20b2:	0f 90       	pop	r0
    20b4:	0f be       	out	0x3f, r0	; 63
    20b6:	0f 90       	pop	r0
    20b8:	1f 90       	pop	r1
    20ba:	18 95       	reti

000020bc <__vector_33>:
    20bc:	1f 92       	push	r1
    20be:	0f 92       	push	r0
    20c0:	0f b6       	in	r0, 0x3f	; 63
    20c2:	0f 92       	push	r0
    20c4:	11 24       	eor	r1, r1
    20c6:	0b b6       	in	r0, 0x3b	; 59
    20c8:	0f 92       	push	r0
    20ca:	2f 93       	push	r18
    20cc:	3f 93       	push	r19
    20ce:	4f 93       	push	r20
    20d0:	5f 93       	push	r21
    20d2:	6f 93       	push	r22
    20d4:	7f 93       	push	r23
    20d6:	8f 93       	push	r24
    20d8:	9f 93       	push	r25
    20da:	af 93       	push	r26
    20dc:	bf 93       	push	r27
    20de:	ef 93       	push	r30
    20e0:	ff 93       	push	r31
    20e2:	e0 91 90 04 	lds	r30, 0x0490	; 0x800490 <tc_tccr3_compb_callback>
    20e6:	f0 91 91 04 	lds	r31, 0x0491	; 0x800491 <tc_tccr3_compb_callback+0x1>
    20ea:	30 97       	sbiw	r30, 0x00	; 0
    20ec:	09 f0       	breq	.+2      	; 0x20f0 <__vector_33+0x34>
    20ee:	19 95       	eicall
    20f0:	ff 91       	pop	r31
    20f2:	ef 91       	pop	r30
    20f4:	bf 91       	pop	r27
    20f6:	af 91       	pop	r26
    20f8:	9f 91       	pop	r25
    20fa:	8f 91       	pop	r24
    20fc:	7f 91       	pop	r23
    20fe:	6f 91       	pop	r22
    2100:	5f 91       	pop	r21
    2102:	4f 91       	pop	r20
    2104:	3f 91       	pop	r19
    2106:	2f 91       	pop	r18
    2108:	0f 90       	pop	r0
    210a:	0b be       	out	0x3b, r0	; 59
    210c:	0f 90       	pop	r0
    210e:	0f be       	out	0x3f, r0	; 63
    2110:	0f 90       	pop	r0
    2112:	1f 90       	pop	r1
    2114:	18 95       	reti

00002116 <__vector_34>:
    2116:	1f 92       	push	r1
    2118:	0f 92       	push	r0
    211a:	0f b6       	in	r0, 0x3f	; 63
    211c:	0f 92       	push	r0
    211e:	11 24       	eor	r1, r1
    2120:	0b b6       	in	r0, 0x3b	; 59
    2122:	0f 92       	push	r0
    2124:	2f 93       	push	r18
    2126:	3f 93       	push	r19
    2128:	4f 93       	push	r20
    212a:	5f 93       	push	r21
    212c:	6f 93       	push	r22
    212e:	7f 93       	push	r23
    2130:	8f 93       	push	r24
    2132:	9f 93       	push	r25
    2134:	af 93       	push	r26
    2136:	bf 93       	push	r27
    2138:	ef 93       	push	r30
    213a:	ff 93       	push	r31
    213c:	e0 91 8e 04 	lds	r30, 0x048E	; 0x80048e <tc_tccr3_compc_callback>
    2140:	f0 91 8f 04 	lds	r31, 0x048F	; 0x80048f <tc_tccr3_compc_callback+0x1>
    2144:	30 97       	sbiw	r30, 0x00	; 0
    2146:	09 f0       	breq	.+2      	; 0x214a <__vector_34+0x34>
    2148:	19 95       	eicall
    214a:	ff 91       	pop	r31
    214c:	ef 91       	pop	r30
    214e:	bf 91       	pop	r27
    2150:	af 91       	pop	r26
    2152:	9f 91       	pop	r25
    2154:	8f 91       	pop	r24
    2156:	7f 91       	pop	r23
    2158:	6f 91       	pop	r22
    215a:	5f 91       	pop	r21
    215c:	4f 91       	pop	r20
    215e:	3f 91       	pop	r19
    2160:	2f 91       	pop	r18
    2162:	0f 90       	pop	r0
    2164:	0b be       	out	0x3b, r0	; 59
    2166:	0f 90       	pop	r0
    2168:	0f be       	out	0x3f, r0	; 63
    216a:	0f 90       	pop	r0
    216c:	1f 90       	pop	r1
    216e:	18 95       	reti

00002170 <__vector_45>:
    2170:	1f 92       	push	r1
    2172:	0f 92       	push	r0
    2174:	0f b6       	in	r0, 0x3f	; 63
    2176:	0f 92       	push	r0
    2178:	11 24       	eor	r1, r1
    217a:	0b b6       	in	r0, 0x3b	; 59
    217c:	0f 92       	push	r0
    217e:	2f 93       	push	r18
    2180:	3f 93       	push	r19
    2182:	4f 93       	push	r20
    2184:	5f 93       	push	r21
    2186:	6f 93       	push	r22
    2188:	7f 93       	push	r23
    218a:	8f 93       	push	r24
    218c:	9f 93       	push	r25
    218e:	af 93       	push	r26
    2190:	bf 93       	push	r27
    2192:	ef 93       	push	r30
    2194:	ff 93       	push	r31
    2196:	e0 91 8c 04 	lds	r30, 0x048C	; 0x80048c <tc_tccr4_ovf_callback>
    219a:	f0 91 8d 04 	lds	r31, 0x048D	; 0x80048d <tc_tccr4_ovf_callback+0x1>
    219e:	30 97       	sbiw	r30, 0x00	; 0
    21a0:	09 f0       	breq	.+2      	; 0x21a4 <__vector_45+0x34>
    21a2:	19 95       	eicall
    21a4:	ff 91       	pop	r31
    21a6:	ef 91       	pop	r30
    21a8:	bf 91       	pop	r27
    21aa:	af 91       	pop	r26
    21ac:	9f 91       	pop	r25
    21ae:	8f 91       	pop	r24
    21b0:	7f 91       	pop	r23
    21b2:	6f 91       	pop	r22
    21b4:	5f 91       	pop	r21
    21b6:	4f 91       	pop	r20
    21b8:	3f 91       	pop	r19
    21ba:	2f 91       	pop	r18
    21bc:	0f 90       	pop	r0
    21be:	0b be       	out	0x3b, r0	; 59
    21c0:	0f 90       	pop	r0
    21c2:	0f be       	out	0x3f, r0	; 63
    21c4:	0f 90       	pop	r0
    21c6:	1f 90       	pop	r1
    21c8:	18 95       	reti

000021ca <__vector_42>:
    21ca:	1f 92       	push	r1
    21cc:	0f 92       	push	r0
    21ce:	0f b6       	in	r0, 0x3f	; 63
    21d0:	0f 92       	push	r0
    21d2:	11 24       	eor	r1, r1
    21d4:	0b b6       	in	r0, 0x3b	; 59
    21d6:	0f 92       	push	r0
    21d8:	2f 93       	push	r18
    21da:	3f 93       	push	r19
    21dc:	4f 93       	push	r20
    21de:	5f 93       	push	r21
    21e0:	6f 93       	push	r22
    21e2:	7f 93       	push	r23
    21e4:	8f 93       	push	r24
    21e6:	9f 93       	push	r25
    21e8:	af 93       	push	r26
    21ea:	bf 93       	push	r27
    21ec:	ef 93       	push	r30
    21ee:	ff 93       	push	r31
    21f0:	e0 91 8a 04 	lds	r30, 0x048A	; 0x80048a <tc_tccr4_compa_callback>
    21f4:	f0 91 8b 04 	lds	r31, 0x048B	; 0x80048b <tc_tccr4_compa_callback+0x1>
    21f8:	30 97       	sbiw	r30, 0x00	; 0
    21fa:	09 f0       	breq	.+2      	; 0x21fe <__vector_42+0x34>
    21fc:	19 95       	eicall
    21fe:	ff 91       	pop	r31
    2200:	ef 91       	pop	r30
    2202:	bf 91       	pop	r27
    2204:	af 91       	pop	r26
    2206:	9f 91       	pop	r25
    2208:	8f 91       	pop	r24
    220a:	7f 91       	pop	r23
    220c:	6f 91       	pop	r22
    220e:	5f 91       	pop	r21
    2210:	4f 91       	pop	r20
    2212:	3f 91       	pop	r19
    2214:	2f 91       	pop	r18
    2216:	0f 90       	pop	r0
    2218:	0b be       	out	0x3b, r0	; 59
    221a:	0f 90       	pop	r0
    221c:	0f be       	out	0x3f, r0	; 63
    221e:	0f 90       	pop	r0
    2220:	1f 90       	pop	r1
    2222:	18 95       	reti

00002224 <__vector_43>:
    2224:	1f 92       	push	r1
    2226:	0f 92       	push	r0
    2228:	0f b6       	in	r0, 0x3f	; 63
    222a:	0f 92       	push	r0
    222c:	11 24       	eor	r1, r1
    222e:	0b b6       	in	r0, 0x3b	; 59
    2230:	0f 92       	push	r0
    2232:	2f 93       	push	r18
    2234:	3f 93       	push	r19
    2236:	4f 93       	push	r20
    2238:	5f 93       	push	r21
    223a:	6f 93       	push	r22
    223c:	7f 93       	push	r23
    223e:	8f 93       	push	r24
    2240:	9f 93       	push	r25
    2242:	af 93       	push	r26
    2244:	bf 93       	push	r27
    2246:	ef 93       	push	r30
    2248:	ff 93       	push	r31
    224a:	e0 91 88 04 	lds	r30, 0x0488	; 0x800488 <tc_tccr4_compb_callback>
    224e:	f0 91 89 04 	lds	r31, 0x0489	; 0x800489 <tc_tccr4_compb_callback+0x1>
    2252:	30 97       	sbiw	r30, 0x00	; 0
    2254:	09 f0       	breq	.+2      	; 0x2258 <__vector_43+0x34>
    2256:	19 95       	eicall
    2258:	ff 91       	pop	r31
    225a:	ef 91       	pop	r30
    225c:	bf 91       	pop	r27
    225e:	af 91       	pop	r26
    2260:	9f 91       	pop	r25
    2262:	8f 91       	pop	r24
    2264:	7f 91       	pop	r23
    2266:	6f 91       	pop	r22
    2268:	5f 91       	pop	r21
    226a:	4f 91       	pop	r20
    226c:	3f 91       	pop	r19
    226e:	2f 91       	pop	r18
    2270:	0f 90       	pop	r0
    2272:	0b be       	out	0x3b, r0	; 59
    2274:	0f 90       	pop	r0
    2276:	0f be       	out	0x3f, r0	; 63
    2278:	0f 90       	pop	r0
    227a:	1f 90       	pop	r1
    227c:	18 95       	reti

0000227e <__vector_44>:
    227e:	1f 92       	push	r1
    2280:	0f 92       	push	r0
    2282:	0f b6       	in	r0, 0x3f	; 63
    2284:	0f 92       	push	r0
    2286:	11 24       	eor	r1, r1
    2288:	0b b6       	in	r0, 0x3b	; 59
    228a:	0f 92       	push	r0
    228c:	2f 93       	push	r18
    228e:	3f 93       	push	r19
    2290:	4f 93       	push	r20
    2292:	5f 93       	push	r21
    2294:	6f 93       	push	r22
    2296:	7f 93       	push	r23
    2298:	8f 93       	push	r24
    229a:	9f 93       	push	r25
    229c:	af 93       	push	r26
    229e:	bf 93       	push	r27
    22a0:	ef 93       	push	r30
    22a2:	ff 93       	push	r31
    22a4:	e0 91 86 04 	lds	r30, 0x0486	; 0x800486 <tc_tccr4_compc_callback>
    22a8:	f0 91 87 04 	lds	r31, 0x0487	; 0x800487 <tc_tccr4_compc_callback+0x1>
    22ac:	30 97       	sbiw	r30, 0x00	; 0
    22ae:	09 f0       	breq	.+2      	; 0x22b2 <__vector_44+0x34>
    22b0:	19 95       	eicall
    22b2:	ff 91       	pop	r31
    22b4:	ef 91       	pop	r30
    22b6:	bf 91       	pop	r27
    22b8:	af 91       	pop	r26
    22ba:	9f 91       	pop	r25
    22bc:	8f 91       	pop	r24
    22be:	7f 91       	pop	r23
    22c0:	6f 91       	pop	r22
    22c2:	5f 91       	pop	r21
    22c4:	4f 91       	pop	r20
    22c6:	3f 91       	pop	r19
    22c8:	2f 91       	pop	r18
    22ca:	0f 90       	pop	r0
    22cc:	0b be       	out	0x3b, r0	; 59
    22ce:	0f 90       	pop	r0
    22d0:	0f be       	out	0x3f, r0	; 63
    22d2:	0f 90       	pop	r0
    22d4:	1f 90       	pop	r1
    22d6:	18 95       	reti

000022d8 <__vector_50>:
    22d8:	1f 92       	push	r1
    22da:	0f 92       	push	r0
    22dc:	0f b6       	in	r0, 0x3f	; 63
    22de:	0f 92       	push	r0
    22e0:	11 24       	eor	r1, r1
    22e2:	0b b6       	in	r0, 0x3b	; 59
    22e4:	0f 92       	push	r0
    22e6:	2f 93       	push	r18
    22e8:	3f 93       	push	r19
    22ea:	4f 93       	push	r20
    22ec:	5f 93       	push	r21
    22ee:	6f 93       	push	r22
    22f0:	7f 93       	push	r23
    22f2:	8f 93       	push	r24
    22f4:	9f 93       	push	r25
    22f6:	af 93       	push	r26
    22f8:	bf 93       	push	r27
    22fa:	ef 93       	push	r30
    22fc:	ff 93       	push	r31
    22fe:	e0 91 84 04 	lds	r30, 0x0484	; 0x800484 <tc_tccr5_ovf_callback>
    2302:	f0 91 85 04 	lds	r31, 0x0485	; 0x800485 <tc_tccr5_ovf_callback+0x1>
    2306:	30 97       	sbiw	r30, 0x00	; 0
    2308:	09 f0       	breq	.+2      	; 0x230c <__vector_50+0x34>
    230a:	19 95       	eicall
    230c:	ff 91       	pop	r31
    230e:	ef 91       	pop	r30
    2310:	bf 91       	pop	r27
    2312:	af 91       	pop	r26
    2314:	9f 91       	pop	r25
    2316:	8f 91       	pop	r24
    2318:	7f 91       	pop	r23
    231a:	6f 91       	pop	r22
    231c:	5f 91       	pop	r21
    231e:	4f 91       	pop	r20
    2320:	3f 91       	pop	r19
    2322:	2f 91       	pop	r18
    2324:	0f 90       	pop	r0
    2326:	0b be       	out	0x3b, r0	; 59
    2328:	0f 90       	pop	r0
    232a:	0f be       	out	0x3f, r0	; 63
    232c:	0f 90       	pop	r0
    232e:	1f 90       	pop	r1
    2330:	18 95       	reti

00002332 <__vector_47>:
    2332:	1f 92       	push	r1
    2334:	0f 92       	push	r0
    2336:	0f b6       	in	r0, 0x3f	; 63
    2338:	0f 92       	push	r0
    233a:	11 24       	eor	r1, r1
    233c:	0b b6       	in	r0, 0x3b	; 59
    233e:	0f 92       	push	r0
    2340:	2f 93       	push	r18
    2342:	3f 93       	push	r19
    2344:	4f 93       	push	r20
    2346:	5f 93       	push	r21
    2348:	6f 93       	push	r22
    234a:	7f 93       	push	r23
    234c:	8f 93       	push	r24
    234e:	9f 93       	push	r25
    2350:	af 93       	push	r26
    2352:	bf 93       	push	r27
    2354:	ef 93       	push	r30
    2356:	ff 93       	push	r31
    2358:	e0 91 82 04 	lds	r30, 0x0482	; 0x800482 <tc_tccr5_compa_callback>
    235c:	f0 91 83 04 	lds	r31, 0x0483	; 0x800483 <tc_tccr5_compa_callback+0x1>
    2360:	30 97       	sbiw	r30, 0x00	; 0
    2362:	09 f0       	breq	.+2      	; 0x2366 <__vector_47+0x34>
    2364:	19 95       	eicall
    2366:	ff 91       	pop	r31
    2368:	ef 91       	pop	r30
    236a:	bf 91       	pop	r27
    236c:	af 91       	pop	r26
    236e:	9f 91       	pop	r25
    2370:	8f 91       	pop	r24
    2372:	7f 91       	pop	r23
    2374:	6f 91       	pop	r22
    2376:	5f 91       	pop	r21
    2378:	4f 91       	pop	r20
    237a:	3f 91       	pop	r19
    237c:	2f 91       	pop	r18
    237e:	0f 90       	pop	r0
    2380:	0b be       	out	0x3b, r0	; 59
    2382:	0f 90       	pop	r0
    2384:	0f be       	out	0x3f, r0	; 63
    2386:	0f 90       	pop	r0
    2388:	1f 90       	pop	r1
    238a:	18 95       	reti

0000238c <__vector_48>:
    238c:	1f 92       	push	r1
    238e:	0f 92       	push	r0
    2390:	0f b6       	in	r0, 0x3f	; 63
    2392:	0f 92       	push	r0
    2394:	11 24       	eor	r1, r1
    2396:	0b b6       	in	r0, 0x3b	; 59
    2398:	0f 92       	push	r0
    239a:	2f 93       	push	r18
    239c:	3f 93       	push	r19
    239e:	4f 93       	push	r20
    23a0:	5f 93       	push	r21
    23a2:	6f 93       	push	r22
    23a4:	7f 93       	push	r23
    23a6:	8f 93       	push	r24
    23a8:	9f 93       	push	r25
    23aa:	af 93       	push	r26
    23ac:	bf 93       	push	r27
    23ae:	ef 93       	push	r30
    23b0:	ff 93       	push	r31
    23b2:	e0 91 80 04 	lds	r30, 0x0480	; 0x800480 <tc_tccr5_compb_callback>
    23b6:	f0 91 81 04 	lds	r31, 0x0481	; 0x800481 <tc_tccr5_compb_callback+0x1>
    23ba:	30 97       	sbiw	r30, 0x00	; 0
    23bc:	09 f0       	breq	.+2      	; 0x23c0 <__vector_48+0x34>
    23be:	19 95       	eicall
    23c0:	ff 91       	pop	r31
    23c2:	ef 91       	pop	r30
    23c4:	bf 91       	pop	r27
    23c6:	af 91       	pop	r26
    23c8:	9f 91       	pop	r25
    23ca:	8f 91       	pop	r24
    23cc:	7f 91       	pop	r23
    23ce:	6f 91       	pop	r22
    23d0:	5f 91       	pop	r21
    23d2:	4f 91       	pop	r20
    23d4:	3f 91       	pop	r19
    23d6:	2f 91       	pop	r18
    23d8:	0f 90       	pop	r0
    23da:	0b be       	out	0x3b, r0	; 59
    23dc:	0f 90       	pop	r0
    23de:	0f be       	out	0x3f, r0	; 63
    23e0:	0f 90       	pop	r0
    23e2:	1f 90       	pop	r1
    23e4:	18 95       	reti

000023e6 <__vector_49>:
    23e6:	1f 92       	push	r1
    23e8:	0f 92       	push	r0
    23ea:	0f b6       	in	r0, 0x3f	; 63
    23ec:	0f 92       	push	r0
    23ee:	11 24       	eor	r1, r1
    23f0:	0b b6       	in	r0, 0x3b	; 59
    23f2:	0f 92       	push	r0
    23f4:	2f 93       	push	r18
    23f6:	3f 93       	push	r19
    23f8:	4f 93       	push	r20
    23fa:	5f 93       	push	r21
    23fc:	6f 93       	push	r22
    23fe:	7f 93       	push	r23
    2400:	8f 93       	push	r24
    2402:	9f 93       	push	r25
    2404:	af 93       	push	r26
    2406:	bf 93       	push	r27
    2408:	ef 93       	push	r30
    240a:	ff 93       	push	r31
    240c:	e0 91 7e 04 	lds	r30, 0x047E	; 0x80047e <tc_tccr5_compc_callback>
    2410:	f0 91 7f 04 	lds	r31, 0x047F	; 0x80047f <tc_tccr5_compc_callback+0x1>
    2414:	30 97       	sbiw	r30, 0x00	; 0
    2416:	09 f0       	breq	.+2      	; 0x241a <__vector_49+0x34>
    2418:	19 95       	eicall
    241a:	ff 91       	pop	r31
    241c:	ef 91       	pop	r30
    241e:	bf 91       	pop	r27
    2420:	af 91       	pop	r26
    2422:	9f 91       	pop	r25
    2424:	8f 91       	pop	r24
    2426:	7f 91       	pop	r23
    2428:	6f 91       	pop	r22
    242a:	5f 91       	pop	r21
    242c:	4f 91       	pop	r20
    242e:	3f 91       	pop	r19
    2430:	2f 91       	pop	r18
    2432:	0f 90       	pop	r0
    2434:	0b be       	out	0x3b, r0	; 59
    2436:	0f 90       	pop	r0
    2438:	0f be       	out	0x3f, r0	; 63
    243a:	0f 90       	pop	r0
    243c:	1f 90       	pop	r1
    243e:	18 95       	reti

00002440 <tc_enable>:
    2440:	1f 93       	push	r17
    2442:	cf 93       	push	r28
    2444:	df 93       	push	r29
    2446:	1f 92       	push	r1
    2448:	cd b7       	in	r28, 0x3d	; 61
    244a:	de b7       	in	r29, 0x3e	; 62
    244c:	2f b7       	in	r18, 0x3f	; 63
    244e:	29 83       	std	Y+1, r18	; 0x01
    2450:	f8 94       	cli
    2452:	19 81       	ldd	r17, Y+1	; 0x01
    2454:	00 97       	sbiw	r24, 0x00	; 0
    2456:	09 f4       	brne	.+2      	; 0x245a <tc_enable+0x1a>
    2458:	64 c0       	rjmp	.+200    	; 0x2522 <tc_enable+0xe2>
    245a:	88 37       	cpi	r24, 0x78	; 120
    245c:	91 05       	cpc	r25, r1
    245e:	49 f4       	brne	.+18     	; 0x2472 <tc_enable+0x32>
    2460:	61 e0       	ldi	r22, 0x01	; 1
    2462:	80 e0       	ldi	r24, 0x00	; 0
    2464:	0e 94 67 03 	call	0x6ce	; 0x6ce <sysclk_enable_module>
    2468:	60 e1       	ldi	r22, 0x10	; 16
    246a:	80 e0       	ldi	r24, 0x00	; 0
    246c:	0e 94 67 03 	call	0x6ce	; 0x6ce <sysclk_enable_module>
    2470:	58 c0       	rjmp	.+176    	; 0x2522 <tc_enable+0xe2>
    2472:	80 3c       	cpi	r24, 0xC0	; 192
    2474:	91 05       	cpc	r25, r1
    2476:	29 f4       	brne	.+10     	; 0x2482 <tc_enable+0x42>
    2478:	62 e0       	ldi	r22, 0x02	; 2
    247a:	80 e0       	ldi	r24, 0x00	; 0
    247c:	0e 94 67 03 	call	0x6ce	; 0x6ce <sysclk_enable_module>
    2480:	50 c0       	rjmp	.+160    	; 0x2522 <tc_enable+0xe2>
    2482:	8c 34       	cpi	r24, 0x4C	; 76
    2484:	91 05       	cpc	r25, r1
    2486:	29 f4       	brne	.+10     	; 0x2492 <tc_enable+0x52>
    2488:	64 e0       	ldi	r22, 0x04	; 4
    248a:	80 e0       	ldi	r24, 0x00	; 0
    248c:	0e 94 67 03 	call	0x6ce	; 0x6ce <sysclk_enable_module>
    2490:	48 c0       	rjmp	.+144    	; 0x2522 <tc_enable+0xe2>
    2492:	80 38       	cpi	r24, 0x80	; 128
    2494:	91 05       	cpc	r25, r1
    2496:	29 f4       	brne	.+10     	; 0x24a2 <tc_enable+0x62>
    2498:	68 e0       	ldi	r22, 0x08	; 8
    249a:	80 e0       	ldi	r24, 0x00	; 0
    249c:	0e 94 67 03 	call	0x6ce	; 0x6ce <sysclk_enable_module>
    24a0:	40 c0       	rjmp	.+128    	; 0x2522 <tc_enable+0xe2>
    24a2:	84 34       	cpi	r24, 0x44	; 68
    24a4:	91 05       	cpc	r25, r1
    24a6:	29 f4       	brne	.+10     	; 0x24b2 <tc_enable+0x72>
    24a8:	60 e2       	ldi	r22, 0x20	; 32
    24aa:	80 e0       	ldi	r24, 0x00	; 0
    24ac:	0e 94 67 03 	call	0x6ce	; 0x6ce <sysclk_enable_module>
    24b0:	38 c0       	rjmp	.+112    	; 0x2522 <tc_enable+0xe2>
    24b2:	80 3b       	cpi	r24, 0xB0	; 176
    24b4:	91 05       	cpc	r25, r1
    24b6:	29 f4       	brne	.+10     	; 0x24c2 <tc_enable+0x82>
    24b8:	60 e4       	ldi	r22, 0x40	; 64
    24ba:	80 e0       	ldi	r24, 0x00	; 0
    24bc:	0e 94 67 03 	call	0x6ce	; 0x6ce <sysclk_enable_module>
    24c0:	30 c0       	rjmp	.+96     	; 0x2522 <tc_enable+0xe2>
    24c2:	88 3b       	cpi	r24, 0xB8	; 184
    24c4:	91 05       	cpc	r25, r1
    24c6:	29 f4       	brne	.+10     	; 0x24d2 <tc_enable+0x92>
    24c8:	60 e8       	ldi	r22, 0x80	; 128
    24ca:	80 e0       	ldi	r24, 0x00	; 0
    24cc:	0e 94 67 03 	call	0x6ce	; 0x6ce <sysclk_enable_module>
    24d0:	28 c0       	rjmp	.+80     	; 0x2522 <tc_enable+0xe2>
    24d2:	88 3c       	cpi	r24, 0xC8	; 200
    24d4:	91 05       	cpc	r25, r1
    24d6:	29 f4       	brne	.+10     	; 0x24e2 <tc_enable+0xa2>
    24d8:	61 e0       	ldi	r22, 0x01	; 1
    24da:	81 e0       	ldi	r24, 0x01	; 1
    24dc:	0e 94 67 03 	call	0x6ce	; 0x6ce <sysclk_enable_module>
    24e0:	20 c0       	rjmp	.+64     	; 0x2522 <tc_enable+0xe2>
    24e2:	80 39       	cpi	r24, 0x90	; 144
    24e4:	91 05       	cpc	r25, r1
    24e6:	29 f4       	brne	.+10     	; 0x24f2 <tc_enable+0xb2>
    24e8:	68 e0       	ldi	r22, 0x08	; 8
    24ea:	81 e0       	ldi	r24, 0x01	; 1
    24ec:	0e 94 67 03 	call	0x6ce	; 0x6ce <sysclk_enable_module>
    24f0:	18 c0       	rjmp	.+48     	; 0x2522 <tc_enable+0xe2>
    24f2:	80 3a       	cpi	r24, 0xA0	; 160
    24f4:	91 05       	cpc	r25, r1
    24f6:	29 f4       	brne	.+10     	; 0x2502 <tc_enable+0xc2>
    24f8:	60 e1       	ldi	r22, 0x10	; 16
    24fa:	81 e0       	ldi	r24, 0x01	; 1
    24fc:	0e 94 67 03 	call	0x6ce	; 0x6ce <sysclk_enable_module>
    2500:	10 c0       	rjmp	.+32     	; 0x2522 <tc_enable+0xe2>
    2502:	80 32       	cpi	r24, 0x20	; 32
    2504:	21 e0       	ldi	r18, 0x01	; 1
    2506:	92 07       	cpc	r25, r18
    2508:	29 f4       	brne	.+10     	; 0x2514 <tc_enable+0xd4>
    250a:	60 e2       	ldi	r22, 0x20	; 32
    250c:	81 e0       	ldi	r24, 0x01	; 1
    250e:	0e 94 67 03 	call	0x6ce	; 0x6ce <sysclk_enable_module>
    2512:	07 c0       	rjmp	.+14     	; 0x2522 <tc_enable+0xe2>
    2514:	83 34       	cpi	r24, 0x43	; 67
    2516:	91 40       	sbci	r25, 0x01	; 1
    2518:	21 f4       	brne	.+8      	; 0x2522 <tc_enable+0xe2>
    251a:	60 e4       	ldi	r22, 0x40	; 64
    251c:	81 e0       	ldi	r24, 0x01	; 1
    251e:	0e 94 67 03 	call	0x6ce	; 0x6ce <sysclk_enable_module>
    2522:	1f bf       	out	0x3f, r17	; 63
    2524:	0f 90       	pop	r0
    2526:	df 91       	pop	r29
    2528:	cf 91       	pop	r28
    252a:	1f 91       	pop	r17
    252c:	08 95       	ret

0000252e <tc_disable>:
    252e:	1f 93       	push	r17
    2530:	cf 93       	push	r28
    2532:	df 93       	push	r29
    2534:	1f 92       	push	r1
    2536:	cd b7       	in	r28, 0x3d	; 61
    2538:	de b7       	in	r29, 0x3e	; 62
    253a:	2f b7       	in	r18, 0x3f	; 63
    253c:	29 83       	std	Y+1, r18	; 0x01
    253e:	f8 94       	cli
    2540:	19 81       	ldd	r17, Y+1	; 0x01
    2542:	00 97       	sbiw	r24, 0x00	; 0
    2544:	09 f4       	brne	.+2      	; 0x2548 <tc_disable+0x1a>
    2546:	64 c0       	rjmp	.+200    	; 0x2610 <tc_disable+0xe2>
    2548:	88 37       	cpi	r24, 0x78	; 120
    254a:	91 05       	cpc	r25, r1
    254c:	49 f4       	brne	.+18     	; 0x2560 <tc_disable+0x32>
    254e:	61 e0       	ldi	r22, 0x01	; 1
    2550:	80 e0       	ldi	r24, 0x00	; 0
    2552:	0e 94 7f 03 	call	0x6fe	; 0x6fe <sysclk_disable_module>
    2556:	60 e1       	ldi	r22, 0x10	; 16
    2558:	80 e0       	ldi	r24, 0x00	; 0
    255a:	0e 94 7f 03 	call	0x6fe	; 0x6fe <sysclk_disable_module>
    255e:	58 c0       	rjmp	.+176    	; 0x2610 <tc_disable+0xe2>
    2560:	80 3c       	cpi	r24, 0xC0	; 192
    2562:	91 05       	cpc	r25, r1
    2564:	29 f4       	brne	.+10     	; 0x2570 <tc_disable+0x42>
    2566:	62 e0       	ldi	r22, 0x02	; 2
    2568:	80 e0       	ldi	r24, 0x00	; 0
    256a:	0e 94 7f 03 	call	0x6fe	; 0x6fe <sysclk_disable_module>
    256e:	50 c0       	rjmp	.+160    	; 0x2610 <tc_disable+0xe2>
    2570:	8c 34       	cpi	r24, 0x4C	; 76
    2572:	91 05       	cpc	r25, r1
    2574:	29 f4       	brne	.+10     	; 0x2580 <tc_disable+0x52>
    2576:	64 e0       	ldi	r22, 0x04	; 4
    2578:	80 e0       	ldi	r24, 0x00	; 0
    257a:	0e 94 7f 03 	call	0x6fe	; 0x6fe <sysclk_disable_module>
    257e:	48 c0       	rjmp	.+144    	; 0x2610 <tc_disable+0xe2>
    2580:	80 38       	cpi	r24, 0x80	; 128
    2582:	91 05       	cpc	r25, r1
    2584:	29 f4       	brne	.+10     	; 0x2590 <tc_disable+0x62>
    2586:	68 e0       	ldi	r22, 0x08	; 8
    2588:	80 e0       	ldi	r24, 0x00	; 0
    258a:	0e 94 7f 03 	call	0x6fe	; 0x6fe <sysclk_disable_module>
    258e:	40 c0       	rjmp	.+128    	; 0x2610 <tc_disable+0xe2>
    2590:	84 34       	cpi	r24, 0x44	; 68
    2592:	91 05       	cpc	r25, r1
    2594:	29 f4       	brne	.+10     	; 0x25a0 <tc_disable+0x72>
    2596:	60 e2       	ldi	r22, 0x20	; 32
    2598:	80 e0       	ldi	r24, 0x00	; 0
    259a:	0e 94 7f 03 	call	0x6fe	; 0x6fe <sysclk_disable_module>
    259e:	38 c0       	rjmp	.+112    	; 0x2610 <tc_disable+0xe2>
    25a0:	80 3b       	cpi	r24, 0xB0	; 176
    25a2:	91 05       	cpc	r25, r1
    25a4:	29 f4       	brne	.+10     	; 0x25b0 <tc_disable+0x82>
    25a6:	60 e4       	ldi	r22, 0x40	; 64
    25a8:	80 e0       	ldi	r24, 0x00	; 0
    25aa:	0e 94 7f 03 	call	0x6fe	; 0x6fe <sysclk_disable_module>
    25ae:	30 c0       	rjmp	.+96     	; 0x2610 <tc_disable+0xe2>
    25b0:	88 3b       	cpi	r24, 0xB8	; 184
    25b2:	91 05       	cpc	r25, r1
    25b4:	29 f4       	brne	.+10     	; 0x25c0 <tc_disable+0x92>
    25b6:	60 e8       	ldi	r22, 0x80	; 128
    25b8:	80 e0       	ldi	r24, 0x00	; 0
    25ba:	0e 94 7f 03 	call	0x6fe	; 0x6fe <sysclk_disable_module>
    25be:	28 c0       	rjmp	.+80     	; 0x2610 <tc_disable+0xe2>
    25c0:	88 3c       	cpi	r24, 0xC8	; 200
    25c2:	91 05       	cpc	r25, r1
    25c4:	29 f4       	brne	.+10     	; 0x25d0 <tc_disable+0xa2>
    25c6:	61 e0       	ldi	r22, 0x01	; 1
    25c8:	81 e0       	ldi	r24, 0x01	; 1
    25ca:	0e 94 7f 03 	call	0x6fe	; 0x6fe <sysclk_disable_module>
    25ce:	20 c0       	rjmp	.+64     	; 0x2610 <tc_disable+0xe2>
    25d0:	80 39       	cpi	r24, 0x90	; 144
    25d2:	91 05       	cpc	r25, r1
    25d4:	29 f4       	brne	.+10     	; 0x25e0 <tc_disable+0xb2>
    25d6:	68 e0       	ldi	r22, 0x08	; 8
    25d8:	81 e0       	ldi	r24, 0x01	; 1
    25da:	0e 94 7f 03 	call	0x6fe	; 0x6fe <sysclk_disable_module>
    25de:	18 c0       	rjmp	.+48     	; 0x2610 <tc_disable+0xe2>
    25e0:	80 3a       	cpi	r24, 0xA0	; 160
    25e2:	91 05       	cpc	r25, r1
    25e4:	29 f4       	brne	.+10     	; 0x25f0 <tc_disable+0xc2>
    25e6:	60 e1       	ldi	r22, 0x10	; 16
    25e8:	81 e0       	ldi	r24, 0x01	; 1
    25ea:	0e 94 7f 03 	call	0x6fe	; 0x6fe <sysclk_disable_module>
    25ee:	10 c0       	rjmp	.+32     	; 0x2610 <tc_disable+0xe2>
    25f0:	80 32       	cpi	r24, 0x20	; 32
    25f2:	21 e0       	ldi	r18, 0x01	; 1
    25f4:	92 07       	cpc	r25, r18
    25f6:	29 f4       	brne	.+10     	; 0x2602 <tc_disable+0xd4>
    25f8:	60 e2       	ldi	r22, 0x20	; 32
    25fa:	81 e0       	ldi	r24, 0x01	; 1
    25fc:	0e 94 7f 03 	call	0x6fe	; 0x6fe <sysclk_disable_module>
    2600:	07 c0       	rjmp	.+14     	; 0x2610 <tc_disable+0xe2>
    2602:	83 34       	cpi	r24, 0x43	; 67
    2604:	91 40       	sbci	r25, 0x01	; 1
    2606:	21 f4       	brne	.+8      	; 0x2610 <tc_disable+0xe2>
    2608:	60 e4       	ldi	r22, 0x40	; 64
    260a:	81 e0       	ldi	r24, 0x01	; 1
    260c:	0e 94 7f 03 	call	0x6fe	; 0x6fe <sysclk_disable_module>
    2610:	1f bf       	out	0x3f, r17	; 63
    2612:	0f 90       	pop	r0
    2614:	df 91       	pop	r29
    2616:	cf 91       	pop	r28
    2618:	1f 91       	pop	r17
    261a:	08 95       	ret

0000261c <tc_set_overflow_interrupt_callback>:
    261c:	80 38       	cpi	r24, 0x80	; 128
    261e:	91 05       	cpc	r25, r1
    2620:	29 f4       	brne	.+10     	; 0x262c <tc_set_overflow_interrupt_callback+0x10>
    2622:	70 93 9d 04 	sts	0x049D, r23	; 0x80049d <tc_tccr1_ovf_callback+0x1>
    2626:	60 93 9c 04 	sts	0x049C, r22	; 0x80049c <tc_tccr1_ovf_callback>
    262a:	08 95       	ret
    262c:	80 39       	cpi	r24, 0x90	; 144
    262e:	91 05       	cpc	r25, r1
    2630:	29 f4       	brne	.+10     	; 0x263c <tc_set_overflow_interrupt_callback+0x20>
    2632:	70 93 95 04 	sts	0x0495, r23	; 0x800495 <tc_tccr3_ovf_callback+0x1>
    2636:	60 93 94 04 	sts	0x0494, r22	; 0x800494 <tc_tccr3_ovf_callback>
    263a:	08 95       	ret
    263c:	80 3a       	cpi	r24, 0xA0	; 160
    263e:	91 05       	cpc	r25, r1
    2640:	29 f4       	brne	.+10     	; 0x264c <tc_set_overflow_interrupt_callback+0x30>
    2642:	70 93 8d 04 	sts	0x048D, r23	; 0x80048d <tc_tccr4_ovf_callback+0x1>
    2646:	60 93 8c 04 	sts	0x048C, r22	; 0x80048c <tc_tccr4_ovf_callback>
    264a:	08 95       	ret
    264c:	80 32       	cpi	r24, 0x20	; 32
    264e:	91 40       	sbci	r25, 0x01	; 1
    2650:	21 f4       	brne	.+8      	; 0x265a <tc_set_overflow_interrupt_callback+0x3e>
    2652:	70 93 85 04 	sts	0x0485, r23	; 0x800485 <tc_tccr5_ovf_callback+0x1>
    2656:	60 93 84 04 	sts	0x0484, r22	; 0x800484 <tc_tccr5_ovf_callback>
    265a:	08 95       	ret

0000265c <tc_set_compa_interrupt_callback>:
    265c:	80 38       	cpi	r24, 0x80	; 128
    265e:	91 05       	cpc	r25, r1
    2660:	29 f4       	brne	.+10     	; 0x266c <tc_set_compa_interrupt_callback+0x10>
    2662:	70 93 9b 04 	sts	0x049B, r23	; 0x80049b <tc_tccr1_compa_callback+0x1>
    2666:	60 93 9a 04 	sts	0x049A, r22	; 0x80049a <tc_tccr1_compa_callback>
    266a:	08 95       	ret
    266c:	80 39       	cpi	r24, 0x90	; 144
    266e:	91 05       	cpc	r25, r1
    2670:	29 f4       	brne	.+10     	; 0x267c <tc_set_compa_interrupt_callback+0x20>
    2672:	70 93 93 04 	sts	0x0493, r23	; 0x800493 <tc_tccr3_compa_callback+0x1>
    2676:	60 93 92 04 	sts	0x0492, r22	; 0x800492 <tc_tccr3_compa_callback>
    267a:	08 95       	ret
    267c:	80 3a       	cpi	r24, 0xA0	; 160
    267e:	91 05       	cpc	r25, r1
    2680:	29 f4       	brne	.+10     	; 0x268c <tc_set_compa_interrupt_callback+0x30>
    2682:	70 93 8b 04 	sts	0x048B, r23	; 0x80048b <tc_tccr4_compa_callback+0x1>
    2686:	60 93 8a 04 	sts	0x048A, r22	; 0x80048a <tc_tccr4_compa_callback>
    268a:	08 95       	ret
    268c:	80 32       	cpi	r24, 0x20	; 32
    268e:	91 40       	sbci	r25, 0x01	; 1
    2690:	21 f4       	brne	.+8      	; 0x269a <tc_set_compa_interrupt_callback+0x3e>
    2692:	70 93 83 04 	sts	0x0483, r23	; 0x800483 <tc_tccr5_compa_callback+0x1>
    2696:	60 93 82 04 	sts	0x0482, r22	; 0x800482 <tc_tccr5_compa_callback>
    269a:	08 95       	ret

0000269c <main>:
 * \brief Main function of the application
 */
int main(void)
{	
	/* Initialize the Wireless Module */
	wireless_init();    
    269c:	0e 94 0c 03 	call	0x618	; 0x618 <wireless_init>
	
	/*The Modules selected in the wizard are initialized here */
	modules_init();
    26a0:	0e 94 4b 03 	call	0x696	; 0x696 <modules_init>
 * \brief Tasks Handled By the Stack and application are Performed here,this function is handled in a loop to perform tasks continuously 
 */
void WirelessTask(void)
{
	/* These methods are called to perform the default tasks of the MAC Stack */
	pal_task();
    26a4:	0e 94 3c 05 	call	0xa78	; 0xa78 <pal_task>
	tal_task();
    26a8:	0e 94 99 07 	call	0xf32	; 0xf32 <tal_task>
/**
 * \brief Application task
 */
 void app_task(void)
{
	usr_wireless_app_task();
    26ac:	0e 94 f1 01 	call	0x3e2	; 0x3e2 <usr_wireless_app_task>
    26b0:	f9 cf       	rjmp	.-14     	; 0x26a4 <main+0x8>

000026b2 <tal_tx_frame_done_cb>:
 * \param frame pointer to the transmitted frame
 */
void tal_tx_frame_done_cb(retval_t status, frame_info_t *frame)
{
	/*Perform application tasks when a frame is transmitted here*/
	usr_frame_transmitted_cb(status, frame);
    26b2:	0c 94 32 02 	jmp	0x464	; 0x464 <usr_frame_transmitted_cb>
    26b6:	08 95       	ret

000026b8 <tal_rx_frame_cb>:
 * \brief This method (callback) is called when a frame is received by the transceiver
 * \param frame pointer to the received frame
 *
 */
void tal_rx_frame_cb(frame_info_t *frame)
{
    26b8:	cf 93       	push	r28
    26ba:	df 93       	push	r29
    26bc:	ec 01       	movw	r28, r24
	/*Perform application tasks when a frame is received here*/
	usr_frame_received_cb(frame);
    26be:	0e 94 08 02 	call	0x410	; 0x410 <usr_frame_received_cb>
	// Free-up the buffer which was used for reception once the frame is extracted.
	bmm_buffer_free(frame->buffer_header);
    26c2:	89 81       	ldd	r24, Y+1	; 0x01
    26c4:	9a 81       	ldd	r25, Y+2	; 0x02
    26c6:	0e 94 68 05 	call	0xad0	; 0xad0 <bmm_buffer_free>
}
    26ca:	df 91       	pop	r29
    26cc:	cf 91       	pop	r28
    26ce:	08 95       	ret

000026d0 <__mulsi3>:
    26d0:	db 01       	movw	r26, r22
    26d2:	8f 93       	push	r24
    26d4:	9f 93       	push	r25
    26d6:	49 d0       	rcall	.+146    	; 0x276a <__muluhisi3>
    26d8:	bf 91       	pop	r27
    26da:	af 91       	pop	r26
    26dc:	a2 9f       	mul	r26, r18
    26de:	80 0d       	add	r24, r0
    26e0:	91 1d       	adc	r25, r1
    26e2:	a3 9f       	mul	r26, r19
    26e4:	90 0d       	add	r25, r0
    26e6:	b2 9f       	mul	r27, r18
    26e8:	90 0d       	add	r25, r0
    26ea:	11 24       	eor	r1, r1
    26ec:	08 95       	ret

000026ee <__udivmodhi4>:
    26ee:	aa 1b       	sub	r26, r26
    26f0:	bb 1b       	sub	r27, r27
    26f2:	51 e1       	ldi	r21, 0x11	; 17
    26f4:	07 c0       	rjmp	.+14     	; 0x2704 <__udivmodhi4_ep>

000026f6 <__udivmodhi4_loop>:
    26f6:	aa 1f       	adc	r26, r26
    26f8:	bb 1f       	adc	r27, r27
    26fa:	a6 17       	cp	r26, r22
    26fc:	b7 07       	cpc	r27, r23
    26fe:	10 f0       	brcs	.+4      	; 0x2704 <__udivmodhi4_ep>
    2700:	a6 1b       	sub	r26, r22
    2702:	b7 0b       	sbc	r27, r23

00002704 <__udivmodhi4_ep>:
    2704:	88 1f       	adc	r24, r24
    2706:	99 1f       	adc	r25, r25
    2708:	5a 95       	dec	r21
    270a:	a9 f7       	brne	.-22     	; 0x26f6 <__udivmodhi4_loop>
    270c:	80 95       	com	r24
    270e:	90 95       	com	r25
    2710:	bc 01       	movw	r22, r24
    2712:	cd 01       	movw	r24, r26
    2714:	08 95       	ret

00002716 <__divmodhi4>:
    2716:	97 fb       	bst	r25, 7
    2718:	07 2e       	mov	r0, r23
    271a:	16 f4       	brtc	.+4      	; 0x2720 <__divmodhi4+0xa>
    271c:	00 94       	com	r0
    271e:	06 d0       	rcall	.+12     	; 0x272c <__divmodhi4_neg1>
    2720:	77 fd       	sbrc	r23, 7
    2722:	08 d0       	rcall	.+16     	; 0x2734 <__divmodhi4_neg2>
    2724:	e4 df       	rcall	.-56     	; 0x26ee <__udivmodhi4>
    2726:	07 fc       	sbrc	r0, 7
    2728:	05 d0       	rcall	.+10     	; 0x2734 <__divmodhi4_neg2>
    272a:	3e f4       	brtc	.+14     	; 0x273a <__divmodhi4_exit>

0000272c <__divmodhi4_neg1>:
    272c:	90 95       	com	r25
    272e:	81 95       	neg	r24
    2730:	9f 4f       	sbci	r25, 0xFF	; 255
    2732:	08 95       	ret

00002734 <__divmodhi4_neg2>:
    2734:	70 95       	com	r23
    2736:	61 95       	neg	r22
    2738:	7f 4f       	sbci	r23, 0xFF	; 255

0000273a <__divmodhi4_exit>:
    273a:	08 95       	ret

0000273c <__tablejump2__>:
    273c:	ee 0f       	add	r30, r30
    273e:	ff 1f       	adc	r31, r31
    2740:	88 1f       	adc	r24, r24
    2742:	8b bf       	out	0x3b, r24	; 59
    2744:	07 90       	elpm	r0, Z+
    2746:	f6 91       	elpm	r31, Z
    2748:	e0 2d       	mov	r30, r0
    274a:	19 94       	eijmp

0000274c <__umulhisi3>:
    274c:	a2 9f       	mul	r26, r18
    274e:	b0 01       	movw	r22, r0
    2750:	b3 9f       	mul	r27, r19
    2752:	c0 01       	movw	r24, r0
    2754:	a3 9f       	mul	r26, r19
    2756:	70 0d       	add	r23, r0
    2758:	81 1d       	adc	r24, r1
    275a:	11 24       	eor	r1, r1
    275c:	91 1d       	adc	r25, r1
    275e:	b2 9f       	mul	r27, r18
    2760:	70 0d       	add	r23, r0
    2762:	81 1d       	adc	r24, r1
    2764:	11 24       	eor	r1, r1
    2766:	91 1d       	adc	r25, r1
    2768:	08 95       	ret

0000276a <__muluhisi3>:
    276a:	f0 df       	rcall	.-32     	; 0x274c <__umulhisi3>
    276c:	a5 9f       	mul	r26, r21
    276e:	90 0d       	add	r25, r0
    2770:	b4 9f       	mul	r27, r20
    2772:	90 0d       	add	r25, r0
    2774:	a4 9f       	mul	r26, r20
    2776:	80 0d       	add	r24, r0
    2778:	91 1d       	adc	r25, r1
    277a:	11 24       	eor	r1, r1
    277c:	08 95       	ret

0000277e <__adddi3_s8>:
    277e:	00 24       	eor	r0, r0
    2780:	a7 fd       	sbrc	r26, 7
    2782:	00 94       	com	r0
    2784:	2a 0f       	add	r18, r26
    2786:	30 1d       	adc	r19, r0
    2788:	40 1d       	adc	r20, r0
    278a:	50 1d       	adc	r21, r0
    278c:	60 1d       	adc	r22, r0
    278e:	70 1d       	adc	r23, r0
    2790:	80 1d       	adc	r24, r0
    2792:	90 1d       	adc	r25, r0
    2794:	08 95       	ret

00002796 <__cmpdi2_s8>:
    2796:	00 24       	eor	r0, r0
    2798:	a7 fd       	sbrc	r26, 7
    279a:	00 94       	com	r0
    279c:	2a 17       	cp	r18, r26
    279e:	30 05       	cpc	r19, r0
    27a0:	40 05       	cpc	r20, r0
    27a2:	50 05       	cpc	r21, r0
    27a4:	60 05       	cpc	r22, r0
    27a6:	70 05       	cpc	r23, r0
    27a8:	80 05       	cpc	r24, r0
    27aa:	90 05       	cpc	r25, r0
    27ac:	08 95       	ret

000027ae <do_rand>:
    27ae:	8f 92       	push	r8
    27b0:	9f 92       	push	r9
    27b2:	af 92       	push	r10
    27b4:	bf 92       	push	r11
    27b6:	cf 92       	push	r12
    27b8:	df 92       	push	r13
    27ba:	ef 92       	push	r14
    27bc:	ff 92       	push	r15
    27be:	cf 93       	push	r28
    27c0:	df 93       	push	r29
    27c2:	ec 01       	movw	r28, r24
    27c4:	68 81       	ld	r22, Y
    27c6:	79 81       	ldd	r23, Y+1	; 0x01
    27c8:	8a 81       	ldd	r24, Y+2	; 0x02
    27ca:	9b 81       	ldd	r25, Y+3	; 0x03
    27cc:	61 15       	cp	r22, r1
    27ce:	71 05       	cpc	r23, r1
    27d0:	81 05       	cpc	r24, r1
    27d2:	91 05       	cpc	r25, r1
    27d4:	21 f4       	brne	.+8      	; 0x27de <do_rand+0x30>
    27d6:	64 e2       	ldi	r22, 0x24	; 36
    27d8:	79 ed       	ldi	r23, 0xD9	; 217
    27da:	8b e5       	ldi	r24, 0x5B	; 91
    27dc:	97 e0       	ldi	r25, 0x07	; 7
    27de:	2d e1       	ldi	r18, 0x1D	; 29
    27e0:	33 ef       	ldi	r19, 0xF3	; 243
    27e2:	41 e0       	ldi	r20, 0x01	; 1
    27e4:	50 e0       	ldi	r21, 0x00	; 0
    27e6:	41 d0       	rcall	.+130    	; 0x286a <__divmodsi4>
    27e8:	49 01       	movw	r8, r18
    27ea:	5a 01       	movw	r10, r20
    27ec:	9b 01       	movw	r18, r22
    27ee:	ac 01       	movw	r20, r24
    27f0:	a7 ea       	ldi	r26, 0xA7	; 167
    27f2:	b1 e4       	ldi	r27, 0x41	; 65
    27f4:	ba df       	rcall	.-140    	; 0x276a <__muluhisi3>
    27f6:	6b 01       	movw	r12, r22
    27f8:	7c 01       	movw	r14, r24
    27fa:	ac ee       	ldi	r26, 0xEC	; 236
    27fc:	b4 ef       	ldi	r27, 0xF4	; 244
    27fe:	a5 01       	movw	r20, r10
    2800:	94 01       	movw	r18, r8
    2802:	51 d0       	rcall	.+162    	; 0x28a6 <__mulohisi3>
    2804:	dc 01       	movw	r26, r24
    2806:	cb 01       	movw	r24, r22
    2808:	8c 0d       	add	r24, r12
    280a:	9d 1d       	adc	r25, r13
    280c:	ae 1d       	adc	r26, r14
    280e:	bf 1d       	adc	r27, r15
    2810:	b7 ff       	sbrs	r27, 7
    2812:	03 c0       	rjmp	.+6      	; 0x281a <do_rand+0x6c>
    2814:	01 97       	sbiw	r24, 0x01	; 1
    2816:	a1 09       	sbc	r26, r1
    2818:	b0 48       	sbci	r27, 0x80	; 128
    281a:	88 83       	st	Y, r24
    281c:	99 83       	std	Y+1, r25	; 0x01
    281e:	aa 83       	std	Y+2, r26	; 0x02
    2820:	bb 83       	std	Y+3, r27	; 0x03
    2822:	9f 77       	andi	r25, 0x7F	; 127
    2824:	df 91       	pop	r29
    2826:	cf 91       	pop	r28
    2828:	ff 90       	pop	r15
    282a:	ef 90       	pop	r14
    282c:	df 90       	pop	r13
    282e:	cf 90       	pop	r12
    2830:	bf 90       	pop	r11
    2832:	af 90       	pop	r10
    2834:	9f 90       	pop	r9
    2836:	8f 90       	pop	r8
    2838:	08 95       	ret

0000283a <rand_r>:
    283a:	b9 cf       	rjmp	.-142    	; 0x27ae <do_rand>

0000283c <rand>:
    283c:	80 e0       	ldi	r24, 0x00	; 0
    283e:	92 e0       	ldi	r25, 0x02	; 2
    2840:	b6 cf       	rjmp	.-148    	; 0x27ae <do_rand>

00002842 <srand>:
    2842:	a0 e0       	ldi	r26, 0x00	; 0
    2844:	b0 e0       	ldi	r27, 0x00	; 0
    2846:	80 93 00 02 	sts	0x0200, r24	; 0x800200 <__data_start>
    284a:	90 93 01 02 	sts	0x0201, r25	; 0x800201 <__data_start+0x1>
    284e:	a0 93 02 02 	sts	0x0202, r26	; 0x800202 <__data_start+0x2>
    2852:	b0 93 03 02 	sts	0x0203, r27	; 0x800203 <__data_start+0x3>
    2856:	08 95       	ret

00002858 <memcpy>:
    2858:	fb 01       	movw	r30, r22
    285a:	dc 01       	movw	r26, r24
    285c:	02 c0       	rjmp	.+4      	; 0x2862 <memcpy+0xa>
    285e:	01 90       	ld	r0, Z+
    2860:	0d 92       	st	X+, r0
    2862:	41 50       	subi	r20, 0x01	; 1
    2864:	50 40       	sbci	r21, 0x00	; 0
    2866:	d8 f7       	brcc	.-10     	; 0x285e <memcpy+0x6>
    2868:	08 95       	ret

0000286a <__divmodsi4>:
    286a:	05 2e       	mov	r0, r21
    286c:	97 fb       	bst	r25, 7
    286e:	16 f4       	brtc	.+4      	; 0x2874 <__divmodsi4+0xa>
    2870:	00 94       	com	r0
    2872:	0f d0       	rcall	.+30     	; 0x2892 <__negsi2>
    2874:	57 fd       	sbrc	r21, 7
    2876:	05 d0       	rcall	.+10     	; 0x2882 <__divmodsi4_neg2>
    2878:	1a d0       	rcall	.+52     	; 0x28ae <__udivmodsi4>
    287a:	07 fc       	sbrc	r0, 7
    287c:	02 d0       	rcall	.+4      	; 0x2882 <__divmodsi4_neg2>
    287e:	46 f4       	brtc	.+16     	; 0x2890 <__divmodsi4_exit>
    2880:	08 c0       	rjmp	.+16     	; 0x2892 <__negsi2>

00002882 <__divmodsi4_neg2>:
    2882:	50 95       	com	r21
    2884:	40 95       	com	r20
    2886:	30 95       	com	r19
    2888:	21 95       	neg	r18
    288a:	3f 4f       	sbci	r19, 0xFF	; 255
    288c:	4f 4f       	sbci	r20, 0xFF	; 255
    288e:	5f 4f       	sbci	r21, 0xFF	; 255

00002890 <__divmodsi4_exit>:
    2890:	08 95       	ret

00002892 <__negsi2>:
    2892:	90 95       	com	r25
    2894:	80 95       	com	r24
    2896:	70 95       	com	r23
    2898:	61 95       	neg	r22
    289a:	7f 4f       	sbci	r23, 0xFF	; 255
    289c:	8f 4f       	sbci	r24, 0xFF	; 255
    289e:	9f 4f       	sbci	r25, 0xFF	; 255
    28a0:	08 95       	ret

000028a2 <__mulshisi3>:
    28a2:	b7 ff       	sbrs	r27, 7
    28a4:	62 cf       	rjmp	.-316    	; 0x276a <__muluhisi3>

000028a6 <__mulohisi3>:
    28a6:	61 df       	rcall	.-318    	; 0x276a <__muluhisi3>
    28a8:	82 1b       	sub	r24, r18
    28aa:	93 0b       	sbc	r25, r19
    28ac:	08 95       	ret

000028ae <__udivmodsi4>:
    28ae:	a1 e2       	ldi	r26, 0x21	; 33
    28b0:	1a 2e       	mov	r1, r26
    28b2:	aa 1b       	sub	r26, r26
    28b4:	bb 1b       	sub	r27, r27
    28b6:	fd 01       	movw	r30, r26
    28b8:	0d c0       	rjmp	.+26     	; 0x28d4 <__udivmodsi4_ep>

000028ba <__udivmodsi4_loop>:
    28ba:	aa 1f       	adc	r26, r26
    28bc:	bb 1f       	adc	r27, r27
    28be:	ee 1f       	adc	r30, r30
    28c0:	ff 1f       	adc	r31, r31
    28c2:	a2 17       	cp	r26, r18
    28c4:	b3 07       	cpc	r27, r19
    28c6:	e4 07       	cpc	r30, r20
    28c8:	f5 07       	cpc	r31, r21
    28ca:	20 f0       	brcs	.+8      	; 0x28d4 <__udivmodsi4_ep>
    28cc:	a2 1b       	sub	r26, r18
    28ce:	b3 0b       	sbc	r27, r19
    28d0:	e4 0b       	sbc	r30, r20
    28d2:	f5 0b       	sbc	r31, r21

000028d4 <__udivmodsi4_ep>:
    28d4:	66 1f       	adc	r22, r22
    28d6:	77 1f       	adc	r23, r23
    28d8:	88 1f       	adc	r24, r24
    28da:	99 1f       	adc	r25, r25
    28dc:	1a 94       	dec	r1
    28de:	69 f7       	brne	.-38     	; 0x28ba <__udivmodsi4_loop>
    28e0:	60 95       	com	r22
    28e2:	70 95       	com	r23
    28e4:	80 95       	com	r24
    28e6:	90 95       	com	r25
    28e8:	9b 01       	movw	r18, r22
    28ea:	ac 01       	movw	r20, r24
    28ec:	bd 01       	movw	r22, r26
    28ee:	cf 01       	movw	r24, r30
    28f0:	08 95       	ret

000028f2 <_exit>:
    28f2:	f8 94       	cli

000028f4 <__stop_program>:
    28f4:	ff cf       	rjmp	.-2      	; 0x28f4 <__stop_program>
